
GccApplication1.elf:     file format elf32-avr

Sections:
Idx Name          Size      VMA       LMA       File off  Algn
  0 .text         00000b22  00000000  00000000  00000094  2**1
                  CONTENTS, ALLOC, LOAD, READONLY, CODE
  1 .data         00000010  00800060  00000b22  00000bb6  2**0
                  CONTENTS, ALLOC, LOAD, DATA
  2 .bss          0000001c  00800070  00800070  00000bc6  2**0
                  ALLOC
  3 .comment      00000030  00000000  00000000  00000bc6  2**0
                  CONTENTS, READONLY
  4 .note.gnu.avr.deviceinfo 0000003c  00000000  00000000  00000bf8  2**2
                  CONTENTS, READONLY
  5 .debug_aranges 000001b0  00000000  00000000  00000c34  2**0
                  CONTENTS, READONLY, DEBUGGING
  6 .debug_info   00001d8e  00000000  00000000  00000de4  2**0
                  CONTENTS, READONLY, DEBUGGING
  7 .debug_abbrev 00000c57  00000000  00000000  00002b72  2**0
                  CONTENTS, READONLY, DEBUGGING
  8 .debug_line   000012bd  00000000  00000000  000037c9  2**0
                  CONTENTS, READONLY, DEBUGGING
  9 .debug_frame  00000380  00000000  00000000  00004a88  2**2
                  CONTENTS, READONLY, DEBUGGING
 10 .debug_str    000008a4  00000000  00000000  00004e08  2**0
                  CONTENTS, READONLY, DEBUGGING
 11 .debug_loc    00000d89  00000000  00000000  000056ac  2**0
                  CONTENTS, READONLY, DEBUGGING
 12 .debug_ranges 00000150  00000000  00000000  00006435  2**0
                  CONTENTS, READONLY, DEBUGGING

Disassembly of section .text:

00000000 <__vectors>:
   0:	a2 c0       	rjmp	.+324    	; 0x146 <__ctors_end>
   2:	bc c0       	rjmp	.+376    	; 0x17c <__bad_interrupt>
   4:	bb c0       	rjmp	.+374    	; 0x17c <__bad_interrupt>
   6:	ba c0       	rjmp	.+372    	; 0x17c <__bad_interrupt>
   8:	b9 c0       	rjmp	.+370    	; 0x17c <__bad_interrupt>
   a:	b8 c0       	rjmp	.+368    	; 0x17c <__bad_interrupt>
   c:	b7 c0       	rjmp	.+366    	; 0x17c <__bad_interrupt>
   e:	b6 c0       	rjmp	.+364    	; 0x17c <__bad_interrupt>
  10:	b5 c0       	rjmp	.+362    	; 0x17c <__bad_interrupt>
  12:	b4 c0       	rjmp	.+360    	; 0x17c <__bad_interrupt>
  14:	92 c3       	rjmp	.+1828   	; 0x73a <__vector_10>
  16:	b2 c0       	rjmp	.+356    	; 0x17c <__bad_interrupt>
  18:	b1 c0       	rjmp	.+354    	; 0x17c <__bad_interrupt>
  1a:	b0 c0       	rjmp	.+352    	; 0x17c <__bad_interrupt>
  1c:	d7 c2       	rjmp	.+1454   	; 0x5cc <__vector_14>

0000001e <__trampolines_end>:
  1e:	00 00       	nop
  20:	00 00       	nop
  22:	00 00       	nop
  24:	00 5f       	subi	r16, 0xF0	; 240
  26:	00 00       	nop
  28:	00 07       	cpc	r16, r16
  2a:	00 07       	cpc	r16, r16
  2c:	00 14       	cp	r0, r0
  2e:	7f 14       	cp	r7, r15
  30:	7f 14       	cp	r7, r15
  32:	24 2a       	or	r2, r20
  34:	7f 2a       	or	r7, r31
  36:	12 23       	and	r17, r18
  38:	13 08       	sbc	r1, r3
  3a:	64 62       	ori	r22, 0x24	; 36
  3c:	36 49       	sbci	r19, 0x96	; 150
  3e:	55 22       	and	r5, r21
  40:	50 00       	.word	0x0050	; ????
  42:	05 03       	mulsu	r16, r21
  44:	00 00       	nop
  46:	00 1c       	adc	r0, r0
  48:	22 41       	sbci	r18, 0x12	; 18
  4a:	00 00       	nop
  4c:	41 22       	and	r4, r17
  4e:	1c 00       	.word	0x001c	; ????
  50:	14 08       	sbc	r1, r4
  52:	3e 08       	sbc	r3, r14
  54:	14 08       	sbc	r1, r4
  56:	08 3e       	cpi	r16, 0xE8	; 232
  58:	08 08       	sbc	r0, r8
  5a:	00 50       	subi	r16, 0x00	; 0
  5c:	30 00       	.word	0x0030	; ????
  5e:	00 08       	sbc	r0, r0
  60:	08 08       	sbc	r0, r8
  62:	08 08       	sbc	r0, r8
  64:	00 60       	ori	r16, 0x00	; 0
  66:	60 00       	.word	0x0060	; ????
  68:	00 20       	and	r0, r0
  6a:	10 08       	sbc	r1, r0
  6c:	04 02       	muls	r16, r20
  6e:	3e 51       	subi	r19, 0x1E	; 30
  70:	49 45       	sbci	r20, 0x59	; 89
  72:	3e 00       	.word	0x003e	; ????
  74:	42 7f       	andi	r20, 0xF2	; 242
  76:	40 00       	.word	0x0040	; ????
  78:	42 61       	ori	r20, 0x12	; 18
  7a:	51 49       	sbci	r21, 0x91	; 145
  7c:	46 21       	and	r20, r6
  7e:	41 45       	sbci	r20, 0x51	; 81
  80:	4b 31       	cpi	r20, 0x1B	; 27
  82:	18 14       	cp	r1, r8
  84:	12 7f       	andi	r17, 0xF2	; 242
  86:	10 27       	eor	r17, r16
  88:	45 45       	sbci	r20, 0x55	; 85
  8a:	45 39       	cpi	r20, 0x95	; 149
  8c:	3c 4a       	sbci	r19, 0xAC	; 172
  8e:	49 49       	sbci	r20, 0x99	; 153
  90:	30 01       	movw	r6, r0
  92:	71 09       	sbc	r23, r1
  94:	05 03       	mulsu	r16, r21
  96:	36 49       	sbci	r19, 0x96	; 150
  98:	49 49       	sbci	r20, 0x99	; 153
  9a:	36 06       	cpc	r3, r22
  9c:	49 49       	sbci	r20, 0x99	; 153
  9e:	29 1e       	adc	r2, r25
  a0:	00 36       	cpi	r16, 0x60	; 96
  a2:	36 00       	.word	0x0036	; ????
  a4:	00 00       	nop
  a6:	56 36       	cpi	r21, 0x66	; 102
  a8:	00 00       	nop
  aa:	08 14       	cp	r0, r8
  ac:	22 41       	sbci	r18, 0x12	; 18
  ae:	00 14       	cp	r0, r0
  b0:	14 14       	cp	r1, r4
  b2:	14 14       	cp	r1, r4
  b4:	00 41       	sbci	r16, 0x10	; 16
  b6:	22 14       	cp	r2, r2
  b8:	08 02       	muls	r16, r24
  ba:	01 51       	subi	r16, 0x11	; 17
  bc:	09 06       	cpc	r0, r25
  be:	32 49       	sbci	r19, 0x92	; 146
  c0:	79 41       	sbci	r23, 0x19	; 25
  c2:	3e 7e       	andi	r19, 0xEE	; 238
  c4:	11 11       	cpse	r17, r1
  c6:	11 7e       	andi	r17, 0xE1	; 225
  c8:	7f 49       	sbci	r23, 0x9F	; 159
  ca:	49 49       	sbci	r20, 0x99	; 153
  cc:	36 3e       	cpi	r19, 0xE6	; 230
  ce:	41 41       	sbci	r20, 0x11	; 17
  d0:	41 22       	and	r4, r17
  d2:	7f 41       	sbci	r23, 0x1F	; 31
  d4:	41 22       	and	r4, r17
  d6:	1c 7f       	andi	r17, 0xFC	; 252
  d8:	49 49       	sbci	r20, 0x99	; 153
  da:	49 41       	sbci	r20, 0x19	; 25
  dc:	7f 09       	sbc	r23, r15
  de:	09 09       	sbc	r16, r9
  e0:	01 3e       	cpi	r16, 0xE1	; 225
  e2:	41 49       	sbci	r20, 0x91	; 145
  e4:	49 7a       	andi	r20, 0xA9	; 169
  e6:	7f 08       	sbc	r7, r15
  e8:	08 08       	sbc	r0, r8
  ea:	7f 00       	.word	0x007f	; ????
  ec:	41 7f       	andi	r20, 0xF1	; 241
  ee:	41 00       	.word	0x0041	; ????
  f0:	20 40       	sbci	r18, 0x00	; 0
  f2:	41 3f       	cpi	r20, 0xF1	; 241
  f4:	01 7f       	andi	r16, 0xF1	; 241
  f6:	08 14       	cp	r0, r8
  f8:	22 41       	sbci	r18, 0x12	; 18
  fa:	7f 40       	sbci	r23, 0x0F	; 15
  fc:	40 40       	sbci	r20, 0x00	; 0
  fe:	40 7f       	andi	r20, 0xF0	; 240
 100:	02 0c       	add	r0, r2
 102:	02 7f       	andi	r16, 0xF2	; 242
 104:	7f 04       	cpc	r7, r15
 106:	08 10       	cpse	r0, r8
 108:	7f 3e       	cpi	r23, 0xEF	; 239
 10a:	41 41       	sbci	r20, 0x11	; 17
 10c:	41 3e       	cpi	r20, 0xE1	; 225
 10e:	7f 09       	sbc	r23, r15
 110:	09 09       	sbc	r16, r9
 112:	06 3e       	cpi	r16, 0xE6	; 230
 114:	41 51       	subi	r20, 0x11	; 17
 116:	21 5e       	subi	r18, 0xE1	; 225
 118:	7f 09       	sbc	r23, r15
 11a:	19 29       	or	r17, r9
 11c:	46 46       	sbci	r20, 0x66	; 102
 11e:	49 49       	sbci	r20, 0x99	; 153
 120:	49 31       	cpi	r20, 0x19	; 25
 122:	01 01       	movw	r0, r2
 124:	7f 01       	movw	r14, r30
 126:	01 3f       	cpi	r16, 0xF1	; 241
 128:	40 40       	sbci	r20, 0x00	; 0
 12a:	40 3f       	cpi	r20, 0xF0	; 240
 12c:	1f 20       	and	r1, r15
 12e:	40 20       	and	r4, r0
 130:	1f 3f       	cpi	r17, 0xFF	; 255
 132:	40 38       	cpi	r20, 0x80	; 128
 134:	40 3f       	cpi	r20, 0xF0	; 240
 136:	63 14       	cp	r6, r3
 138:	08 14       	cp	r0, r8
 13a:	63 07       	cpc	r22, r19
 13c:	08 70       	andi	r16, 0x08	; 8
 13e:	08 07       	cpc	r16, r24
 140:	61 51       	subi	r22, 0x11	; 17
 142:	49 45       	sbci	r20, 0x59	; 89
 144:	43 00       	.word	0x0043	; ????

00000146 <__ctors_end>:
 146:	11 24       	eor	r1, r1
 148:	1f be       	out	0x3f, r1	; 63
 14a:	cf e5       	ldi	r28, 0x5F	; 95
 14c:	d2 e0       	ldi	r29, 0x02	; 2
 14e:	de bf       	out	0x3e, r29	; 62
 150:	cd bf       	out	0x3d, r28	; 61

00000152 <__do_copy_data>:
 152:	10 e0       	ldi	r17, 0x00	; 0
 154:	a0 e6       	ldi	r26, 0x60	; 96
 156:	b0 e0       	ldi	r27, 0x00	; 0
 158:	e2 e2       	ldi	r30, 0x22	; 34
 15a:	fb e0       	ldi	r31, 0x0B	; 11
 15c:	02 c0       	rjmp	.+4      	; 0x162 <__do_copy_data+0x10>
 15e:	05 90       	lpm	r0, Z+
 160:	0d 92       	st	X+, r0
 162:	a0 37       	cpi	r26, 0x70	; 112
 164:	b1 07       	cpc	r27, r17
 166:	d9 f7       	brne	.-10     	; 0x15e <__do_copy_data+0xc>

00000168 <__do_clear_bss>:
 168:	20 e0       	ldi	r18, 0x00	; 0
 16a:	a0 e7       	ldi	r26, 0x70	; 112
 16c:	b0 e0       	ldi	r27, 0x00	; 0
 16e:	01 c0       	rjmp	.+2      	; 0x172 <.do_clear_bss_start>

00000170 <.do_clear_bss_loop>:
 170:	1d 92       	st	X+, r1

00000172 <.do_clear_bss_start>:
 172:	ac 38       	cpi	r26, 0x8C	; 140
 174:	b2 07       	cpc	r27, r18
 176:	e1 f7       	brne	.-8      	; 0x170 <.do_clear_bss_loop>
 178:	f7 d2       	rcall	.+1518   	; 0x768 <main>
 17a:	d1 c4       	rjmp	.+2466   	; 0xb1e <_exit>

0000017c <__bad_interrupt>:
 17c:	41 cf       	rjmp	.-382    	; 0x0 <__vectors>

0000017e <attiny_dht_init>:
		default:
		return GET_DATA_ERROR;
			break; 
	}
	return GET_DATA_ERROR;
}
 17e:	60 e0       	ldi	r22, 0x00	; 0
 180:	83 e0       	ldi	r24, 0x03	; 3
 182:	8c d1       	rcall	.+792    	; 0x49c <setPinDir>
 184:	61 e0       	ldi	r22, 0x01	; 1
 186:	83 e0       	ldi	r24, 0x03	; 3
 188:	6a d1       	rcall	.+724    	; 0x45e <setPin>
 18a:	08 95       	ret

0000018c <dht_start>:
 18c:	80 e0       	ldi	r24, 0x00	; 0
 18e:	90 e1       	ldi	r25, 0x10	; 16
 190:	b7 d1       	rcall	.+878    	; 0x500 <timer1_set_prescaler>
 192:	60 e0       	ldi	r22, 0x00	; 0
 194:	83 e0       	ldi	r24, 0x03	; 3
 196:	63 d1       	rcall	.+710    	; 0x45e <setPin>
 198:	c2 d1       	rcall	.+900    	; 0x51e <timer1_reset_count>
 19a:	c3 d1       	rcall	.+902    	; 0x522 <timer1_get_count>
 19c:	82 31       	cpi	r24, 0x12	; 18
 19e:	e8 f3       	brcs	.-6      	; 0x19a <dht_start+0xe>
 1a0:	61 e0       	ldi	r22, 0x01	; 1
 1a2:	83 e0       	ldi	r24, 0x03	; 3
 1a4:	7b d1       	rcall	.+758    	; 0x49c <setPinDir>
 1a6:	60 e0       	ldi	r22, 0x00	; 0
 1a8:	83 e0       	ldi	r24, 0x03	; 3
 1aa:	59 d1       	rcall	.+690    	; 0x45e <setPin>
 1ac:	88 e0       	ldi	r24, 0x08	; 8
 1ae:	90 e0       	ldi	r25, 0x00	; 0
 1b0:	a7 d1       	rcall	.+846    	; 0x500 <timer1_set_prescaler>
 1b2:	b5 d1       	rcall	.+874    	; 0x51e <timer1_reset_count>
 1b4:	08 95       	ret

000001b6 <dht_response>:
 1b6:	b3 d1       	rcall	.+870    	; 0x51e <timer1_reset_count>
 1b8:	07 c0       	rjmp	.+14     	; 0x1c8 <dht_response+0x12>
 1ba:	b3 d1       	rcall	.+870    	; 0x522 <timer1_get_count>
 1bc:	85 36       	cpi	r24, 0x65	; 101
 1be:	20 f0       	brcs	.+8      	; 0x1c8 <dht_response+0x12>
 1c0:	83 e0       	ldi	r24, 0x03	; 3
 1c2:	80 93 71 00 	sts	0x0071, r24	; 0x800071 <f_dht_error>
 1c6:	08 95       	ret
 1c8:	83 e0       	ldi	r24, 0x03	; 3
 1ca:	87 d1       	rcall	.+782    	; 0x4da <getPinState>
 1cc:	81 11       	cpse	r24, r1
 1ce:	f5 cf       	rjmp	.-22     	; 0x1ba <dht_response+0x4>
 1d0:	a6 d1       	rcall	.+844    	; 0x51e <timer1_reset_count>
 1d2:	07 c0       	rjmp	.+14     	; 0x1e2 <dht_response+0x2c>
 1d4:	a6 d1       	rcall	.+844    	; 0x522 <timer1_get_count>
 1d6:	85 36       	cpi	r24, 0x65	; 101
 1d8:	20 f0       	brcs	.+8      	; 0x1e2 <dht_response+0x2c>
 1da:	83 e0       	ldi	r24, 0x03	; 3
 1dc:	80 93 71 00 	sts	0x0071, r24	; 0x800071 <f_dht_error>
 1e0:	08 95       	ret
 1e2:	83 e0       	ldi	r24, 0x03	; 3
 1e4:	7a d1       	rcall	.+756    	; 0x4da <getPinState>
 1e6:	88 23       	and	r24, r24
 1e8:	a9 f3       	breq	.-22     	; 0x1d4 <dht_response+0x1e>
 1ea:	9b d1       	rcall	.+822    	; 0x522 <timer1_get_count>
 1ec:	8b 54       	subi	r24, 0x4B	; 75
 1ee:	80 31       	cpi	r24, 0x10	; 16
 1f0:	00 f5       	brcc	.+64     	; 0x232 <__DATA_REGION_LENGTH__+0x32>
 1f2:	95 d1       	rcall	.+810    	; 0x51e <timer1_reset_count>
 1f4:	80 91 72 00 	lds	r24, 0x0072	; 0x800072 <_v_response_pulses>
 1f8:	8f 5f       	subi	r24, 0xFF	; 255
 1fa:	80 93 72 00 	sts	0x0072, r24	; 0x800072 <_v_response_pulses>
 1fe:	07 c0       	rjmp	.+14     	; 0x20e <__DATA_REGION_LENGTH__+0xe>
 200:	90 d1       	rcall	.+800    	; 0x522 <timer1_get_count>
 202:	85 36       	cpi	r24, 0x65	; 101
 204:	20 f0       	brcs	.+8      	; 0x20e <__DATA_REGION_LENGTH__+0xe>
 206:	83 e0       	ldi	r24, 0x03	; 3
 208:	80 93 71 00 	sts	0x0071, r24	; 0x800071 <f_dht_error>
 20c:	08 95       	ret
 20e:	83 e0       	ldi	r24, 0x03	; 3
 210:	64 d1       	rcall	.+712    	; 0x4da <getPinState>
 212:	81 11       	cpse	r24, r1
 214:	f5 cf       	rjmp	.-22     	; 0x200 <__DATA_REGION_LENGTH__>
 216:	85 d1       	rcall	.+778    	; 0x522 <timer1_get_count>
 218:	8b 54       	subi	r24, 0x4B	; 75
 21a:	80 31       	cpi	r24, 0x10	; 16
 21c:	30 f4       	brcc	.+12     	; 0x22a <__DATA_REGION_LENGTH__+0x2a>
 21e:	80 91 72 00 	lds	r24, 0x0072	; 0x800072 <_v_response_pulses>
 222:	8f 5f       	subi	r24, 0xFF	; 255
 224:	80 93 72 00 	sts	0x0072, r24	; 0x800072 <_v_response_pulses>
 228:	08 95       	ret
 22a:	82 e0       	ldi	r24, 0x02	; 2
 22c:	80 93 71 00 	sts	0x0071, r24	; 0x800071 <f_dht_error>
 230:	08 95       	ret
 232:	82 e0       	ldi	r24, 0x02	; 2
 234:	80 93 71 00 	sts	0x0071, r24	; 0x800071 <f_dht_error>
 238:	08 95       	ret

0000023a <dht_gets_data>:
 23a:	0f 93       	push	r16
 23c:	1f 93       	push	r17
 23e:	72 c0       	rjmp	.+228    	; 0x324 <__stack+0xc5>
 240:	80 91 60 00 	lds	r24, 0x0060	; 0x800060 <__DATA_REGION_ORIGIN__>
 244:	81 50       	subi	r24, 0x01	; 1
 246:	80 93 60 00 	sts	0x0060, r24	; 0x800060 <__DATA_REGION_ORIGIN__>
 24a:	69 d1       	rcall	.+722    	; 0x51e <timer1_reset_count>
 24c:	07 c0       	rjmp	.+14     	; 0x25c <dht_gets_data+0x22>
 24e:	69 d1       	rcall	.+722    	; 0x522 <timer1_get_count>
 250:	85 36       	cpi	r24, 0x65	; 101
 252:	20 f0       	brcs	.+8      	; 0x25c <dht_gets_data+0x22>
 254:	83 e0       	ldi	r24, 0x03	; 3
 256:	80 93 71 00 	sts	0x0071, r24	; 0x800071 <f_dht_error>
 25a:	68 c0       	rjmp	.+208    	; 0x32c <__stack+0xcd>
 25c:	83 e0       	ldi	r24, 0x03	; 3
 25e:	3d d1       	rcall	.+634    	; 0x4da <getPinState>
 260:	88 23       	and	r24, r24
 262:	a9 f3       	breq	.-22     	; 0x24e <dht_gets_data+0x14>
 264:	5c d1       	rcall	.+696    	; 0x51e <timer1_reset_count>
 266:	07 c0       	rjmp	.+14     	; 0x276 <__stack+0x17>
 268:	5c d1       	rcall	.+696    	; 0x522 <timer1_get_count>
 26a:	85 36       	cpi	r24, 0x65	; 101
 26c:	20 f0       	brcs	.+8      	; 0x276 <__stack+0x17>
 26e:	83 e0       	ldi	r24, 0x03	; 3
 270:	80 93 71 00 	sts	0x0071, r24	; 0x800071 <f_dht_error>
 274:	5b c0       	rjmp	.+182    	; 0x32c <__stack+0xcd>
 276:	83 e0       	ldi	r24, 0x03	; 3
 278:	30 d1       	rcall	.+608    	; 0x4da <getPinState>
 27a:	81 11       	cpse	r24, r1
 27c:	f5 cf       	rjmp	.-22     	; 0x268 <__stack+0x9>
 27e:	51 d1       	rcall	.+674    	; 0x522 <timer1_get_count>
 280:	90 91 60 00 	lds	r25, 0x0060	; 0x800060 <__DATA_REGION_ORIGIN__>
 284:	98 30       	cpi	r25, 0x08	; 8
 286:	58 f1       	brcs	.+86     	; 0x2de <__stack+0x7f>
 288:	8d 32       	cpi	r24, 0x2D	; 45
 28a:	08 f4       	brcc	.+2      	; 0x28e <__stack+0x2f>
 28c:	4b c0       	rjmp	.+150    	; 0x324 <__stack+0xc5>
 28e:	80 91 60 00 	lds	r24, 0x0060	; 0x800060 <__DATA_REGION_ORIGIN__>
 292:	90 e0       	ldi	r25, 0x00	; 0
 294:	08 97       	sbiw	r24, 0x08	; 8
 296:	41 e0       	ldi	r20, 0x01	; 1
 298:	50 e0       	ldi	r21, 0x00	; 0
 29a:	60 e0       	ldi	r22, 0x00	; 0
 29c:	70 e0       	ldi	r23, 0x00	; 0
 29e:	8a 01       	movw	r16, r20
 2a0:	9b 01       	movw	r18, r22
 2a2:	04 c0       	rjmp	.+8      	; 0x2ac <__stack+0x4d>
 2a4:	00 0f       	add	r16, r16
 2a6:	11 1f       	adc	r17, r17
 2a8:	22 1f       	adc	r18, r18
 2aa:	33 1f       	adc	r19, r19
 2ac:	8a 95       	dec	r24
 2ae:	d2 f7       	brpl	.-12     	; 0x2a4 <__stack+0x45>
 2b0:	d9 01       	movw	r26, r18
 2b2:	c8 01       	movw	r24, r16
 2b4:	40 91 77 00 	lds	r20, 0x0077	; 0x800077 <_v_dht_data>
 2b8:	50 91 78 00 	lds	r21, 0x0078	; 0x800078 <_v_dht_data+0x1>
 2bc:	60 91 79 00 	lds	r22, 0x0079	; 0x800079 <_v_dht_data+0x2>
 2c0:	70 91 7a 00 	lds	r23, 0x007A	; 0x80007a <_v_dht_data+0x3>
 2c4:	84 2b       	or	r24, r20
 2c6:	95 2b       	or	r25, r21
 2c8:	a6 2b       	or	r26, r22
 2ca:	b7 2b       	or	r27, r23
 2cc:	80 93 77 00 	sts	0x0077, r24	; 0x800077 <_v_dht_data>
 2d0:	90 93 78 00 	sts	0x0078, r25	; 0x800078 <_v_dht_data+0x1>
 2d4:	a0 93 79 00 	sts	0x0079, r26	; 0x800079 <_v_dht_data+0x2>
 2d8:	b0 93 7a 00 	sts	0x007A, r27	; 0x80007a <_v_dht_data+0x3>
 2dc:	23 c0       	rjmp	.+70     	; 0x324 <__stack+0xc5>
 2de:	8d 32       	cpi	r24, 0x2D	; 45
 2e0:	08 f1       	brcs	.+66     	; 0x324 <__stack+0xc5>
 2e2:	20 91 60 00 	lds	r18, 0x0060	; 0x800060 <__DATA_REGION_ORIGIN__>
 2e6:	81 e0       	ldi	r24, 0x01	; 1
 2e8:	90 e0       	ldi	r25, 0x00	; 0
 2ea:	02 c0       	rjmp	.+4      	; 0x2f0 <__stack+0x91>
 2ec:	88 0f       	add	r24, r24
 2ee:	99 1f       	adc	r25, r25
 2f0:	2a 95       	dec	r18
 2f2:	e2 f7       	brpl	.-8      	; 0x2ec <__stack+0x8d>
 2f4:	40 91 73 00 	lds	r20, 0x0073	; 0x800073 <_v_dht_chk>
 2f8:	50 91 74 00 	lds	r21, 0x0074	; 0x800074 <_v_dht_chk+0x1>
 2fc:	60 91 75 00 	lds	r22, 0x0075	; 0x800075 <_v_dht_chk+0x2>
 300:	70 91 76 00 	lds	r23, 0x0076	; 0x800076 <_v_dht_chk+0x3>
 304:	09 2e       	mov	r0, r25
 306:	00 0c       	add	r0, r0
 308:	aa 0b       	sbc	r26, r26
 30a:	bb 0b       	sbc	r27, r27
 30c:	84 2b       	or	r24, r20
 30e:	95 2b       	or	r25, r21
 310:	a6 2b       	or	r26, r22
 312:	b7 2b       	or	r27, r23
 314:	80 93 73 00 	sts	0x0073, r24	; 0x800073 <_v_dht_chk>
 318:	90 93 74 00 	sts	0x0074, r25	; 0x800074 <_v_dht_chk+0x1>
 31c:	a0 93 75 00 	sts	0x0075, r26	; 0x800075 <_v_dht_chk+0x2>
 320:	b0 93 76 00 	sts	0x0076, r27	; 0x800076 <_v_dht_chk+0x3>
 324:	80 91 60 00 	lds	r24, 0x0060	; 0x800060 <__DATA_REGION_ORIGIN__>
 328:	81 11       	cpse	r24, r1
 32a:	8a cf       	rjmp	.-236    	; 0x240 <dht_gets_data+0x6>
 32c:	1f 91       	pop	r17
 32e:	0f 91       	pop	r16
 330:	08 95       	ret

00000332 <dht_read_2>:
uint8_t dht_read_2()
{
	//dht_start();

	//initialize variables
	_v_dht_rh_int = 0;
 332:	10 92 7c 00 	sts	0x007C, r1	; 0x80007c <_v_dht_rh_int>
	_v_dht_rh_dec = 0;
 336:	10 92 7b 00 	sts	0x007B, r1	; 0x80007b <_v_dht_rh_dec>
	_v_dht_temp_int = 0;
 33a:	10 92 7e 00 	sts	0x007E, r1	; 0x80007e <_v_dht_temp_int>
	_v_dht_temp_dec = 0;
 33e:	10 92 7d 00 	sts	0x007D, r1	; 0x80007d <_v_dht_temp_dec>
	_v_dht_data = 0;
 342:	10 92 77 00 	sts	0x0077, r1	; 0x800077 <_v_dht_data>
 346:	10 92 78 00 	sts	0x0078, r1	; 0x800078 <_v_dht_data+0x1>
 34a:	10 92 79 00 	sts	0x0079, r1	; 0x800079 <_v_dht_data+0x2>
 34e:	10 92 7a 00 	sts	0x007A, r1	; 0x80007a <_v_dht_data+0x3>
	_v_dht_data_ready = 0;
 352:	10 92 70 00 	sts	0x0070, r1	; 0x800070 <__data_end>
	f_dht_error = NO_ERROR;
 356:	10 92 71 00 	sts	0x0071, r1	; 0x800071 <f_dht_error>
	_v_dht_chk = 0; 
 35a:	10 92 73 00 	sts	0x0073, r1	; 0x800073 <_v_dht_chk>
 35e:	10 92 74 00 	sts	0x0074, r1	; 0x800074 <_v_dht_chk+0x1>
 362:	10 92 75 00 	sts	0x0075, r1	; 0x800075 <_v_dht_chk+0x2>
 366:	10 92 76 00 	sts	0x0076, r1	; 0x800076 <_v_dht_chk+0x3>
	_v_dht_data_shift_index = 40;
 36a:	88 e2       	ldi	r24, 0x28	; 40
 36c:	80 93 60 00 	sts	0x0060, r24	; 0x800060 <__DATA_REGION_ORIGIN__>
	_v_response_pulses = 0;
 370:	10 92 72 00 	sts	0x0072, r1	; 0x800072 <_v_response_pulses>
	
	setPinDir(DHT_PIN,OUTPUT);
 374:	60 e0       	ldi	r22, 0x00	; 0
 376:	83 e0       	ldi	r24, 0x03	; 3
 378:	91 d0       	rcall	.+290    	; 0x49c <setPinDir>
	setPin(DHT_PIN,HIGH);
 37a:	61 e0       	ldi	r22, 0x01	; 1
 37c:	83 e0       	ldi	r24, 0x03	; 3
 37e:	6f d0       	rcall	.+222    	; 0x45e <setPin>
	
	//
	//attiny_dht_init();
	//start timer
	timer1_init();
 380:	b8 d0       	rcall	.+368    	; 0x4f2 <timer1_init>
	
	//star FSM
	//sends start signal
	dht_start();
 382:	04 df       	rcall	.-504    	; 0x18c <dht_start>
	if(f_dht_error!=NO_ERROR)
 384:	80 91 71 00 	lds	r24, 0x0071	; 0x800071 <f_dht_error>
 388:	81 11       	cpse	r24, r1
 38a:	61 c0       	rjmp	.+194    	; 0x44e <__LOCK_REGION_LENGTH__+0x4e>
		return GET_DATA_ERROR;
	}

	
	//reads rh and temp values
	dht_response();
 38c:	14 df       	rcall	.-472    	; 0x1b6 <dht_response>
	if(f_dht_error!=NO_ERROR)
 38e:	80 91 71 00 	lds	r24, 0x0071	; 0x800071 <f_dht_error>
 392:	81 11       	cpse	r24, r1
 394:	5e c0       	rjmp	.+188    	; 0x452 <__LOCK_REGION_LENGTH__+0x52>
	{
		return GET_DATA_ERROR;
	}


	dht_gets_data();
 396:	51 df       	rcall	.-350    	; 0x23a <dht_gets_data>
	if(f_dht_error!=NO_ERROR)
 398:	80 91 71 00 	lds	r24, 0x0071	; 0x800071 <f_dht_error>
 39c:	81 11       	cpse	r24, r1
 39e:	5b c0       	rjmp	.+182    	; 0x456 <__LOCK_REGION_LENGTH__+0x56>
	}

	
	//check for stop signal
	//deinit_pcint();
	timer1_deinit();
 3a0:	ac d0       	rcall	.+344    	; 0x4fa <timer1_deinit>

	
	//PORTB|=(0x01<<PB4);
	_v_dht_temp_dec = (_v_dht_data & 0xFF);
 3a2:	80 91 77 00 	lds	r24, 0x0077	; 0x800077 <_v_dht_data>
 3a6:	90 91 78 00 	lds	r25, 0x0078	; 0x800078 <_v_dht_data+0x1>
 3aa:	a0 91 79 00 	lds	r26, 0x0079	; 0x800079 <_v_dht_data+0x2>
 3ae:	b0 91 7a 00 	lds	r27, 0x007A	; 0x80007a <_v_dht_data+0x3>
 3b2:	80 93 7d 00 	sts	0x007D, r24	; 0x80007d <_v_dht_temp_dec>
	_v_dht_temp_int = ((_v_dht_data>>8) & 0xFF);
 3b6:	80 91 77 00 	lds	r24, 0x0077	; 0x800077 <_v_dht_data>
 3ba:	90 91 78 00 	lds	r25, 0x0078	; 0x800078 <_v_dht_data+0x1>
 3be:	a0 91 79 00 	lds	r26, 0x0079	; 0x800079 <_v_dht_data+0x2>
 3c2:	b0 91 7a 00 	lds	r27, 0x007A	; 0x80007a <_v_dht_data+0x3>
 3c6:	89 2f       	mov	r24, r25
 3c8:	9a 2f       	mov	r25, r26
 3ca:	ab 2f       	mov	r26, r27
 3cc:	bb 27       	eor	r27, r27
 3ce:	80 93 7e 00 	sts	0x007E, r24	; 0x80007e <_v_dht_temp_int>
	_v_dht_rh_dec = ((_v_dht_data>>16) & 0xFF);
 3d2:	80 91 77 00 	lds	r24, 0x0077	; 0x800077 <_v_dht_data>
 3d6:	90 91 78 00 	lds	r25, 0x0078	; 0x800078 <_v_dht_data+0x1>
 3da:	a0 91 79 00 	lds	r26, 0x0079	; 0x800079 <_v_dht_data+0x2>
 3de:	b0 91 7a 00 	lds	r27, 0x007A	; 0x80007a <_v_dht_data+0x3>
 3e2:	cd 01       	movw	r24, r26
 3e4:	aa 27       	eor	r26, r26
 3e6:	bb 27       	eor	r27, r27
 3e8:	80 93 7b 00 	sts	0x007B, r24	; 0x80007b <_v_dht_rh_dec>
	_v_dht_rh_int = ((_v_dht_data>>24) & 0xFF);
 3ec:	80 91 77 00 	lds	r24, 0x0077	; 0x800077 <_v_dht_data>
 3f0:	90 91 78 00 	lds	r25, 0x0078	; 0x800078 <_v_dht_data+0x1>
 3f4:	a0 91 79 00 	lds	r26, 0x0079	; 0x800079 <_v_dht_data+0x2>
 3f8:	b0 91 7a 00 	lds	r27, 0x007A	; 0x80007a <_v_dht_data+0x3>
 3fc:	8b 2f       	mov	r24, r27
 3fe:	99 27       	eor	r25, r25
 400:	aa 27       	eor	r26, r26
 402:	bb 27       	eor	r27, r27
 404:	80 93 7c 00 	sts	0x007C, r24	; 0x80007c <_v_dht_rh_int>
	
	if(_v_dht_chk==((_v_dht_temp_dec+_v_dht_temp_int+_v_dht_rh_dec+_v_dht_rh_int) & 0xFF))
 408:	20 91 7d 00 	lds	r18, 0x007D	; 0x80007d <_v_dht_temp_dec>
 40c:	80 91 7e 00 	lds	r24, 0x007E	; 0x80007e <_v_dht_temp_int>
 410:	90 e0       	ldi	r25, 0x00	; 0
 412:	82 0f       	add	r24, r18
 414:	91 1d       	adc	r25, r1
 416:	20 91 7b 00 	lds	r18, 0x007B	; 0x80007b <_v_dht_rh_dec>
 41a:	82 0f       	add	r24, r18
 41c:	91 1d       	adc	r25, r1
 41e:	20 91 7c 00 	lds	r18, 0x007C	; 0x80007c <_v_dht_rh_int>
 422:	82 0f       	add	r24, r18
 424:	91 1d       	adc	r25, r1
 426:	99 27       	eor	r25, r25
 428:	09 2e       	mov	r0, r25
 42a:	00 0c       	add	r0, r0
 42c:	aa 0b       	sbc	r26, r26
 42e:	bb 0b       	sbc	r27, r27
 430:	40 91 73 00 	lds	r20, 0x0073	; 0x800073 <_v_dht_chk>
 434:	50 91 74 00 	lds	r21, 0x0074	; 0x800074 <_v_dht_chk+0x1>
 438:	60 91 75 00 	lds	r22, 0x0075	; 0x800075 <_v_dht_chk+0x2>
 43c:	70 91 76 00 	lds	r23, 0x0076	; 0x800076 <_v_dht_chk+0x3>
 440:	84 17       	cp	r24, r20
 442:	95 07       	cpc	r25, r21
 444:	a6 07       	cpc	r26, r22
 446:	b7 07       	cpc	r27, r23
 448:	41 f4       	brne	.+16     	; 0x45a <__LOCK_REGION_LENGTH__+0x5a>
	{
		return DHT_OK_STATUS;	//_v_dht_data_ready = 1;
 44a:	84 e0       	ldi	r24, 0x04	; 4
 44c:	08 95       	ret
	//star FSM
	//sends start signal
	dht_start();
	if(f_dht_error!=NO_ERROR)
	{
		return GET_DATA_ERROR;
 44e:	83 e0       	ldi	r24, 0x03	; 3
 450:	08 95       	ret
	
	//reads rh and temp values
	dht_response();
	if(f_dht_error!=NO_ERROR)
	{
		return GET_DATA_ERROR;
 452:	83 e0       	ldi	r24, 0x03	; 3
 454:	08 95       	ret


	dht_gets_data();
	if(f_dht_error!=NO_ERROR)
	{
		return GET_DATA_ERROR;
 456:	83 e0       	ldi	r24, 0x03	; 3
 458:	08 95       	ret
	{
		return DHT_OK_STATUS;	//_v_dht_data_ready = 1;
	}
	else
	{
		return GET_DATA_ERROR;	//_v_dht_data_ready = 1;
 45a:	83 e0       	ldi	r24, 0x03	; 3
	}
	
 45c:	08 95       	ret

0000045e <setPin>:
	@params: pin: pin to set; state: state for the pin to ve seted
	@returns: none
*/
void setPin(uint8_t pin,uint8_t state)
{
	if(state==HIGH)
 45e:	61 30       	cpi	r22, 0x01	; 1
 460:	69 f4       	brne	.+26     	; 0x47c <setPin+0x1e>
	{
		PORTB|=(0x01<<pin);
 462:	48 b3       	in	r20, 0x18	; 24
 464:	21 e0       	ldi	r18, 0x01	; 1
 466:	30 e0       	ldi	r19, 0x00	; 0
 468:	b9 01       	movw	r22, r18
 46a:	02 c0       	rjmp	.+4      	; 0x470 <setPin+0x12>
 46c:	66 0f       	add	r22, r22
 46e:	77 1f       	adc	r23, r23
 470:	8a 95       	dec	r24
 472:	e2 f7       	brpl	.-8      	; 0x46c <setPin+0xe>
 474:	cb 01       	movw	r24, r22
 476:	84 2b       	or	r24, r20
 478:	88 bb       	out	0x18, r24	; 24
 47a:	08 95       	ret
	}
	else if (state==LOW)
 47c:	61 11       	cpse	r22, r1
 47e:	0d c0       	rjmp	.+26     	; 0x49a <setPin+0x3c>
	{
		PORTB&=~(0x01<<pin);
 480:	48 b3       	in	r20, 0x18	; 24
 482:	21 e0       	ldi	r18, 0x01	; 1
 484:	30 e0       	ldi	r19, 0x00	; 0
 486:	b9 01       	movw	r22, r18
 488:	02 c0       	rjmp	.+4      	; 0x48e <setPin+0x30>
 48a:	66 0f       	add	r22, r22
 48c:	77 1f       	adc	r23, r23
 48e:	8a 95       	dec	r24
 490:	e2 f7       	brpl	.-8      	; 0x48a <setPin+0x2c>
 492:	cb 01       	movw	r24, r22
 494:	80 95       	com	r24
 496:	84 23       	and	r24, r20
 498:	88 bb       	out	0x18, r24	; 24
 49a:	08 95       	ret

0000049c <setPinDir>:
	@params: pin: pin to set, dir: desired direction for the pin
	@returns: none
*/
void setPinDir(uint8_t pin, uint8_t dir)
{
	if(dir==INPUT)
 49c:	61 30       	cpi	r22, 0x01	; 1
 49e:	71 f4       	brne	.+28     	; 0x4bc <setPinDir+0x20>
	{
		DDRB &= ~(0x01<<pin);
 4a0:	47 b3       	in	r20, 0x17	; 23
 4a2:	21 e0       	ldi	r18, 0x01	; 1
 4a4:	30 e0       	ldi	r19, 0x00	; 0
 4a6:	b9 01       	movw	r22, r18
 4a8:	02 c0       	rjmp	.+4      	; 0x4ae <setPinDir+0x12>
 4aa:	66 0f       	add	r22, r22
 4ac:	77 1f       	adc	r23, r23
 4ae:	8a 95       	dec	r24
 4b0:	e2 f7       	brpl	.-8      	; 0x4aa <setPinDir+0xe>
 4b2:	cb 01       	movw	r24, r22
 4b4:	80 95       	com	r24
 4b6:	84 23       	and	r24, r20
 4b8:	87 bb       	out	0x17, r24	; 23
 4ba:	08 95       	ret
	}
	else if(dir==OUTPUT){
 4bc:	61 11       	cpse	r22, r1
 4be:	0c c0       	rjmp	.+24     	; 0x4d8 <setPinDir+0x3c>
		DDRB |= (0x01<<pin);
 4c0:	47 b3       	in	r20, 0x17	; 23
 4c2:	21 e0       	ldi	r18, 0x01	; 1
 4c4:	30 e0       	ldi	r19, 0x00	; 0
 4c6:	b9 01       	movw	r22, r18
 4c8:	02 c0       	rjmp	.+4      	; 0x4ce <setPinDir+0x32>
 4ca:	66 0f       	add	r22, r22
 4cc:	77 1f       	adc	r23, r23
 4ce:	8a 95       	dec	r24
 4d0:	e2 f7       	brpl	.-8      	; 0x4ca <setPinDir+0x2e>
 4d2:	cb 01       	movw	r24, r22
 4d4:	84 2b       	or	r24, r20
 4d6:	87 bb       	out	0x17, r24	; 23
 4d8:	08 95       	ret

000004da <getPinState>:
	@params: pin to be read
	@returns: 0x01 if pin is "H" or 0x00 if pin is "L"
*/
uint8_t getPinState(uint8_t pin)
{
	return (PINB & (0x01 << pin));
 4da:	46 b3       	in	r20, 0x16	; 22
 4dc:	21 e0       	ldi	r18, 0x01	; 1
 4de:	30 e0       	ldi	r19, 0x00	; 0
 4e0:	b9 01       	movw	r22, r18
 4e2:	02 c0       	rjmp	.+4      	; 0x4e8 <getPinState+0xe>
 4e4:	66 0f       	add	r22, r22
 4e6:	77 1f       	adc	r23, r23
 4e8:	8a 95       	dec	r24
 4ea:	e2 f7       	brpl	.-8      	; 0x4e4 <getPinState+0xa>
 4ec:	cb 01       	movw	r24, r22
 4ee:	84 23       	and	r24, r20
 4f0:	08 95       	ret

000004f2 <timer1_init>:
		bit7:	0 (Don't clear on compare match)
		bit6:	0 (PWM Enable off)
		bit5-4: 00 (0 because we don't use the compare match)
		bit3-0:	0100 (CK/8 = 1MHz)
	*/
	TCCR1 = 0x04;
 4f2:	84 e0       	ldi	r24, 0x04	; 4
 4f4:	80 bf       	out	0x30, r24	; 48
	Bit 0: 0
	*/
	//PLLCSR = 0x02;
	 
	//set the count to 0
	TCNT1 = 0x00;
 4f6:	1f bc       	out	0x2f, r1	; 47
 4f8:	08 95       	ret

000004fa <timer1_deinit>:
		bit7:	0 (Don't clear on compare match)
		bit6:	0 (PWM Enable off)
		bit5-4: 00 (0 because we don't use the compare match)
		bit3-0:	0100 (CK/8 = 1MHz)
	*/
	TCCR1 = 0x00;
 4fa:	10 be       	out	0x30, r1	; 48
	Bit 0: 0
	*/
	//PLLCSR = 0x02;
	 
	//set the count to 0
	TCNT1 = 0x00;
 4fc:	1f bc       	out	0x2f, r1	; 47
 4fe:	08 95       	ret

00000500 <timer1_set_prescaler>:
}

void timer1_set_prescaler(uint16_t prescaler)
{
	switch(prescaler)
 500:	88 30       	cpi	r24, 0x08	; 8
 502:	91 05       	cpc	r25, r1
 504:	21 f0       	breq	.+8      	; 0x50e <timer1_set_prescaler+0xe>
 506:	81 15       	cp	r24, r1
 508:	90 41       	sbci	r25, 0x10	; 16
 50a:	21 f0       	breq	.+8      	; 0x514 <timer1_set_prescaler+0x14>
 50c:	06 c0       	rjmp	.+12     	; 0x51a <timer1_set_prescaler+0x1a>
	{
		case 8:
			TCCR1 = 0x04;
 50e:	84 e0       	ldi	r24, 0x04	; 4
 510:	80 bf       	out	0x30, r24	; 48
			break;
 512:	08 95       	ret
		case 4096:
			TCCR1 = 0x0E;
 514:	8e e0       	ldi	r24, 0x0E	; 14
 516:	80 bf       	out	0x30, r24	; 48
			break;
 518:	08 95       	ret
		default:
			TCCR1 = 0x00; //stops the timers
 51a:	10 be       	out	0x30, r1	; 48
 51c:	08 95       	ret

0000051e <timer1_reset_count>:
	
}

void timer1_reset_count()
{
	TCNT1=0x00;
 51e:	1f bc       	out	0x2f, r1	; 47
 520:	08 95       	ret

00000522 <timer1_get_count>:
}

uint8_t timer1_get_count()
{
	return TCNT1;
 522:	8f b5       	in	r24, 0x2f	; 47
 524:	08 95       	ret

00000526 <attiny_i2c_init>:
	for(i=0;i<bytes;i++)
	{
		i2c_buff[i] = buff[i];
	}
	//start Tx
	attiny_i2c_tx();
 526:	10 92 82 00 	sts	0x0082, r1	; 0x800082 <usi_state>
 52a:	87 b3       	in	r24, 0x17	; 23
 52c:	8e 7f       	andi	r24, 0xFE	; 254
 52e:	87 bb       	out	0x17, r24	; 23
 530:	87 b3       	in	r24, 0x17	; 23
 532:	8b 7f       	andi	r24, 0xFB	; 251
 534:	87 bb       	out	0x17, r24	; 23
 536:	88 b3       	in	r24, 0x18	; 24
 538:	8e 7f       	andi	r24, 0xFE	; 254
 53a:	88 bb       	out	0x18, r24	; 24
 53c:	88 b3       	in	r24, 0x18	; 24
 53e:	8b 7f       	andi	r24, 0xFB	; 251
 540:	88 bb       	out	0x18, r24	; 24
 542:	88 e6       	ldi	r24, 0x68	; 104
 544:	8d b9       	out	0x0d, r24	; 13
 546:	08 95       	ret

00000548 <attiny_i2c_tx>:
 548:	87 b3       	in	r24, 0x17	; 23
 54a:	8e 7f       	andi	r24, 0xFE	; 254
 54c:	87 bb       	out	0x17, r24	; 23
 54e:	87 b3       	in	r24, 0x17	; 23
 550:	8b 7f       	andi	r24, 0xFB	; 251
 552:	87 bb       	out	0x17, r24	; 23
 554:	88 b3       	in	r24, 0x18	; 24
 556:	8e 7f       	andi	r24, 0xFE	; 254
 558:	88 bb       	out	0x18, r24	; 24
 55a:	88 b3       	in	r24, 0x18	; 24
 55c:	8b 7f       	andi	r24, 0xFB	; 251
 55e:	88 bb       	out	0x18, r24	; 24
 560:	87 b3       	in	r24, 0x17	; 23
 562:	81 60       	ori	r24, 0x01	; 1
 564:	87 bb       	out	0x17, r24	; 23
 566:	88 b3       	in	r24, 0x18	; 24
 568:	8e 7f       	andi	r24, 0xFE	; 254
 56a:	88 bb       	out	0x18, r24	; 24
 56c:	8d e0       	ldi	r24, 0x0D	; 13
 56e:	8a 95       	dec	r24
 570:	f1 f7       	brne	.-4      	; 0x56e <attiny_i2c_tx+0x26>
 572:	00 00       	nop
 574:	87 b3       	in	r24, 0x17	; 23
 576:	84 60       	ori	r24, 0x04	; 4
 578:	87 bb       	out	0x17, r24	; 23
 57a:	8d e0       	ldi	r24, 0x0D	; 13
 57c:	8a 95       	dec	r24
 57e:	f1 f7       	brne	.-4      	; 0x57c <attiny_i2c_tx+0x34>
 580:	00 00       	nop
 582:	88 b3       	in	r24, 0x18	; 24
 584:	81 60       	ori	r24, 0x01	; 1
 586:	88 bb       	out	0x18, r24	; 24
 588:	e0 91 81 00 	lds	r30, 0x0081	; 0x800081 <i2c_indx>
 58c:	f0 e0       	ldi	r31, 0x00	; 0
 58e:	eb 57       	subi	r30, 0x7B	; 123
 590:	ff 4f       	sbci	r31, 0xFF	; 255
 592:	80 81       	ld	r24, Z
 594:	8f b9       	out	0x0f, r24	; 15
 596:	80 91 81 00 	lds	r24, 0x0081	; 0x800081 <i2c_indx>
 59a:	8f 5f       	subi	r24, 0xFF	; 255
 59c:	80 93 81 00 	sts	0x0081, r24	; 0x800081 <i2c_indx>
 5a0:	80 ec       	ldi	r24, 0xC0	; 192
 5a2:	8e b9       	out	0x0e, r24	; 14
 5a4:	81 e0       	ldi	r24, 0x01	; 1
 5a6:	80 93 82 00 	sts	0x0082, r24	; 0x800082 <usi_state>
 5aa:	08 95       	ret

000005ac <attiny_i2c_send_byte>:
 5ac:	90 91 82 00 	lds	r25, 0x0082	; 0x800082 <usi_state>
 5b0:	91 11       	cpse	r25, r1
 5b2:	fc cf       	rjmp	.-8      	; 0x5ac <attiny_i2c_send_byte>
 5b4:	10 92 81 00 	sts	0x0081, r1	; 0x800081 <i2c_indx>
 5b8:	93 e0       	ldi	r25, 0x03	; 3
 5ba:	90 93 7f 00 	sts	0x007F, r25	; 0x80007f <i2c_tx_bytes>
 5be:	e5 e8       	ldi	r30, 0x85	; 133
 5c0:	f0 e0       	ldi	r31, 0x00	; 0
 5c2:	80 83       	st	Z, r24
 5c4:	61 83       	std	Z+1, r22	; 0x01
 5c6:	42 83       	std	Z+2, r20	; 0x02
 5c8:	bf df       	rcall	.-130    	; 0x548 <attiny_i2c_tx>
 5ca:	08 95       	ret

000005cc <__vector_14>:
}


ISR(USI_OVF_vect)
{
 5cc:	1f 92       	push	r1
 5ce:	0f 92       	push	r0
 5d0:	0f b6       	in	r0, 0x3f	; 63
 5d2:	0f 92       	push	r0
 5d4:	11 24       	eor	r1, r1
 5d6:	8f 93       	push	r24
 5d8:	9f 93       	push	r25
 5da:	ef 93       	push	r30
 5dc:	ff 93       	push	r31

	usi_status = USISR;
 5de:	8e b1       	in	r24, 0x0e	; 14
 5e0:	80 93 83 00 	sts	0x0083, r24	; 0x800083 <usi_status>

	//USI counter OVF
	if(((usi_status&0x40)>>6)==1)
 5e4:	80 91 83 00 	lds	r24, 0x0083	; 0x800083 <usi_status>
 5e8:	86 ff       	sbrs	r24, 6
 5ea:	02 c0       	rjmp	.+4      	; 0x5f0 <__vector_14+0x24>
	{
		//clean USI counter OVF flag
		USISR = (1 << USIOIF);
 5ec:	80 e4       	ldi	r24, 0x40	; 64
 5ee:	8e b9       	out	0x0e, r24	; 14

	}
	
	
	//USI counter SIF
	if(((usi_status&0x80)>>7)==1)
 5f0:	80 91 83 00 	lds	r24, 0x0083	; 0x800083 <usi_status>
 5f4:	88 23       	and	r24, r24
 5f6:	14 f4       	brge	.+4      	; 0x5fc <__vector_14+0x30>
	{
		//clean USI counter OVF flag
		USISR = (1 << USISIF);
 5f8:	80 e8       	ldi	r24, 0x80	; 128
 5fa:	8e b9       	out	0x0e, r24	; 14
	}

	//I2C FSM
	switch (usi_state)
 5fc:	80 91 82 00 	lds	r24, 0x0082	; 0x800082 <usi_state>
 600:	81 30       	cpi	r24, 0x01	; 1
 602:	51 f0       	breq	.+20     	; 0x618 <__vector_14+0x4c>
 604:	30 f0       	brcs	.+12     	; 0x612 <__vector_14+0x46>
 606:	83 30       	cpi	r24, 0x03	; 3
 608:	09 f4       	brne	.+2      	; 0x60c <__vector_14+0x40>
 60a:	51 c0       	rjmp	.+162    	; 0x6ae <__vector_14+0xe2>
 60c:	84 30       	cpi	r24, 0x04	; 4
 60e:	91 f0       	breq	.+36     	; 0x634 <__vector_14+0x68>
 610:	6a c0       	rjmp	.+212    	; 0x6e6 <__vector_14+0x11a>
	{
		
		//idle state: nothing to do, keep there
		case usi_idle:
		usi_state = usi_idle;
 612:	10 92 82 00 	sts	0x0082, r1	; 0x800082 <usi_state>
		break;
 616:	69 c0       	rjmp	.+210    	; 0x6ea <__vector_14+0x11e>
		//Tx started and address+w/r sent
		case usi_byte_sent:
		
		
		//we sent the start and address, now we prepare to read de ACK
		USISR = (USISR&0xF0)|(0x0E); //set the counter at 14, to read 1 bit of ack
 618:	8e b1       	in	r24, 0x0e	; 14
 61a:	80 7f       	andi	r24, 0xF0	; 240
 61c:	8e 60       	ori	r24, 0x0E	; 14
 61e:	8e b9       	out	0x0e, r24	; 14
		DDRB&=~(0x01<<SDA); //set SDA as input...
 620:	87 b3       	in	r24, 0x17	; 23
 622:	8e 7f       	andi	r24, 0xFE	; 254
 624:	87 bb       	out	0x17, r24	; 23
		PORTB&=~(0x01<<SDA); //an release the line
 626:	88 b3       	in	r24, 0x18	; 24
 628:	8e 7f       	andi	r24, 0xFE	; 254
 62a:	88 bb       	out	0x18, r24	; 24
		
		
		usi_state = usi_read_ack;
 62c:	84 e0       	ldi	r24, 0x04	; 4
 62e:	80 93 82 00 	sts	0x0082, r24	; 0x800082 <usi_state>
		

		break;
 632:	5b c0       	rjmp	.+182    	; 0x6ea <__vector_14+0x11e>

		case usi_read_ack:
		//check of ACK of the device
		if(!(USIDR&0x01))
 634:	78 99       	sbic	0x0f, 0	; 15
 636:	37 c0       	rjmp	.+110    	; 0x6a6 <__vector_14+0xda>
		{
			//check if there is available data in the buffer. Else, exit
			if (i2c_indx<i2c_tx_bytes)
 638:	90 91 81 00 	lds	r25, 0x0081	; 0x800081 <i2c_indx>
 63c:	80 91 7f 00 	lds	r24, 0x007F	; 0x80007f <i2c_tx_bytes>
 640:	98 17       	cp	r25, r24
 642:	c0 f4       	brcc	.+48     	; 0x674 <__vector_14+0xa8>
			{
				

				//pop next data from buffer
				USIDR = i2c_buff[i2c_indx];
 644:	e0 91 81 00 	lds	r30, 0x0081	; 0x800081 <i2c_indx>
 648:	f0 e0       	ldi	r31, 0x00	; 0
 64a:	eb 57       	subi	r30, 0x7B	; 123
 64c:	ff 4f       	sbci	r31, 0xFF	; 255
 64e:	80 81       	ld	r24, Z
 650:	8f b9       	out	0x0f, r24	; 15
				//advance i2c index
				i2c_indx+=1;
 652:	80 91 81 00 	lds	r24, 0x0081	; 0x800081 <i2c_indx>
 656:	8f 5f       	subi	r24, 0xFF	; 255
 658:	80 93 81 00 	sts	0x0081, r24	; 0x800081 <i2c_indx>
				//ACK
				//prepare to send next byte
				PORTB |= (0x01<<SDA);
 65c:	88 b3       	in	r24, 0x18	; 24
 65e:	81 60       	ori	r24, 0x01	; 1
 660:	88 bb       	out	0x18, r24	; 24
				DDRB |= (1<<SDA); //SDA as Output
 662:	87 b3       	in	r24, 0x17	; 23
 664:	81 60       	ori	r24, 0x01	; 1
 666:	87 bb       	out	0x17, r24	; 23
				// Free SDA so the USI takes control of the line
				//DDRB &= ~(1<<SDA);
				
				//set counter to original value
				USISR = (1 << USISIF) | (1 << USIOIF) | (0x00 << USICNT3);
 668:	80 ec       	ldi	r24, 0xC0	; 192
 66a:	8e b9       	out	0x0e, r24	; 14
				
				usi_state = usi_byte_sent;
 66c:	81 e0       	ldi	r24, 0x01	; 1
 66e:	80 93 82 00 	sts	0x0082, r24	; 0x800082 <usi_state>
 672:	3b c0       	rjmp	.+118    	; 0x6ea <__vector_14+0x11e>
			else
			{
				//if we reicived ACK and there is not another byte to Tx, then STOP sequence
				
				//SCL HIGH and SDA TRANSITIONS TO HIGH
				PORTB &= ~(0x01<<SDA);
 674:	88 b3       	in	r24, 0x18	; 24
 676:	8e 7f       	andi	r24, 0xFE	; 254
 678:	88 bb       	out	0x18, r24	; 24
				DDRB |= (1<<SDA); //SDA as Output
 67a:	87 b3       	in	r24, 0x17	; 23
 67c:	81 60       	ori	r24, 0x01	; 1
 67e:	87 bb       	out	0x17, r24	; 23
				
				//Free SCL line (goes to high)
				DDRB &= ~(0x01<<SCL);
 680:	87 b3       	in	r24, 0x17	; 23
 682:	8b 7f       	andi	r24, 0xFB	; 251
 684:	87 bb       	out	0x17, r24	; 23
				PORTB &=~(0x01<<SCL);
 686:	88 b3       	in	r24, 0x18	; 24
 688:	8b 7f       	andi	r24, 0xFB	; 251
 68a:	88 bb       	out	0x18, r24	; 24
	#else
		//round up by default
		__ticks_dc = (uint32_t)(ceil(fabs(__tmp)));
	#endif

	__builtin_avr_delay_cycles(__ticks_dc);
 68c:	8d e0       	ldi	r24, 0x0D	; 13
 68e:	8a 95       	dec	r24
 690:	f1 f7       	brne	.-4      	; 0x68e <__vector_14+0xc2>
 692:	00 00       	nop
				TWI_DELAY()
				//Free SDA line (goes to high)
				DDRB &= ~(0x01<<SDA);
 694:	87 b3       	in	r24, 0x17	; 23
 696:	8e 7f       	andi	r24, 0xFE	; 254
 698:	87 bb       	out	0x17, r24	; 23
				PORTB &=~(0x01<<SDA);
 69a:	88 b3       	in	r24, 0x18	; 24
 69c:	8e 7f       	andi	r24, 0xFE	; 254
 69e:	88 bb       	out	0x18, r24	; 24
				usi_state = usi_idle;
 6a0:	10 92 82 00 	sts	0x0082, r1	; 0x800082 <usi_state>
 6a4:	22 c0       	rjmp	.+68     	; 0x6ea <__vector_14+0x11e>

		}
		else
		{
			//NACK
			usi_state = usi_nack;
 6a6:	83 e0       	ldi	r24, 0x03	; 3
 6a8:	80 93 82 00 	sts	0x0082, r24	; 0x800082 <usi_state>
 6ac:	1e c0       	rjmp	.+60     	; 0x6ea <__vector_14+0x11e>
		}

		break;
		
		case usi_nack:
		f_nack = 1; //to be handled outside the ISR
 6ae:	81 e0       	ldi	r24, 0x01	; 1
 6b0:	80 93 80 00 	sts	0x0080, r24	; 0x800080 <f_nack>
		
		//STOP TX
		//SCL HIGH and SDA TRANSITIONS TO HIGH
		PORTB &= ~(0x01<<SDA);
 6b4:	88 b3       	in	r24, 0x18	; 24
 6b6:	8e 7f       	andi	r24, 0xFE	; 254
 6b8:	88 bb       	out	0x18, r24	; 24
		DDRB |= (1<<SDA); //SDA as Output
 6ba:	87 b3       	in	r24, 0x17	; 23
 6bc:	81 60       	ori	r24, 0x01	; 1
 6be:	87 bb       	out	0x17, r24	; 23
		
		//Free SCL line (goes to high)
		DDRB &= ~(0x01<<SCL);
 6c0:	87 b3       	in	r24, 0x17	; 23
 6c2:	8b 7f       	andi	r24, 0xFB	; 251
 6c4:	87 bb       	out	0x17, r24	; 23
		PORTB &=~(0x01<<SCL);
 6c6:	88 b3       	in	r24, 0x18	; 24
 6c8:	8b 7f       	andi	r24, 0xFB	; 251
 6ca:	88 bb       	out	0x18, r24	; 24
 6cc:	8d e0       	ldi	r24, 0x0D	; 13
 6ce:	8a 95       	dec	r24
 6d0:	f1 f7       	brne	.-4      	; 0x6ce <__vector_14+0x102>
 6d2:	00 00       	nop
		TWI_DELAY()
		//Free SDA line (goes to high)
		DDRB &= ~(0x01<<SDA);
 6d4:	87 b3       	in	r24, 0x17	; 23
 6d6:	8e 7f       	andi	r24, 0xFE	; 254
 6d8:	87 bb       	out	0x17, r24	; 23
		PORTB &=~(0x01<<SDA);
 6da:	88 b3       	in	r24, 0x18	; 24
 6dc:	8e 7f       	andi	r24, 0xFE	; 254
 6de:	88 bb       	out	0x18, r24	; 24
		
		usi_state = usi_idle;
 6e0:	10 92 82 00 	sts	0x0082, r1	; 0x800082 <usi_state>
		break;
 6e4:	02 c0       	rjmp	.+4      	; 0x6ea <__vector_14+0x11e>
		default:
		usi_state = usi_idle;
 6e6:	10 92 82 00 	sts	0x0082, r1	; 0x800082 <usi_state>
		break;
	}

}
 6ea:	ff 91       	pop	r31
 6ec:	ef 91       	pop	r30
 6ee:	9f 91       	pop	r25
 6f0:	8f 91       	pop	r24
 6f2:	0f 90       	pop	r0
 6f4:	0f be       	out	0x3f, r0	; 63
 6f6:	0f 90       	pop	r0
 6f8:	1f 90       	pop	r1
 6fa:	18 95       	reti

000006fc <attiny_timer_init>:
{
	//disable TIMER0 COMPA interrupt
	TIMSK &= ~(1 << OCIE0A);	
	
	//disable clock source for TIMER0
	TCCR0B &= ~((1 << CS02) | (1 << CS01) | (1 << CS00));
 6fc:	8a b5       	in	r24, 0x2a	; 42
 6fe:	8e 7f       	andi	r24, 0xFE	; 254
 700:	8a bd       	out	0x2a, r24	; 42
 702:	8a b5       	in	r24, 0x2a	; 42
 704:	82 60       	ori	r24, 0x02	; 2
 706:	8a bd       	out	0x2a, r24	; 42
 708:	83 b7       	in	r24, 0x33	; 51
 70a:	87 7f       	andi	r24, 0xF7	; 247
 70c:	83 bf       	out	0x33, r24	; 51
 70e:	87 e2       	ldi	r24, 0x27	; 39
 710:	89 bd       	out	0x29, r24	; 41
 712:	81 e0       	ldi	r24, 0x01	; 1
 714:	83 bf       	out	0x33, r24	; 51
 716:	12 be       	out	0x32, r1	; 50
 718:	89 b7       	in	r24, 0x39	; 57
 71a:	80 61       	ori	r24, 0x10	; 16
 71c:	89 bf       	out	0x39, r24	; 57
 71e:	08 95       	ret

00000720 <attiny_init>:
void attiny_init()
{
	//init Timer 0
	//attiny_timer_init();
	//init USI 
	attiny_i2c_init();
 720:	02 df       	rcall	.-508    	; 0x526 <attiny_i2c_init>
	
	app_state = READ;		
 722:	82 e0       	ldi	r24, 0x02	; 2
 724:	80 93 84 00 	sts	0x0084, r24	; 0x800084 <app_state>
	// enable interrupts 
	sei();
 728:	78 94       	sei

	attiny_dht_init();	
 72a:	29 dd       	rcall	.-1454   	; 0x17e <attiny_dht_init>
	//Test LED
	//DDRB |= (0x01<<LED); //LED as Out
	//PORTB&=~(0x01<<LED); //LED off
	setPinDir(LED,OUTPUT);
 72c:	60 e0       	ldi	r22, 0x00	; 0
 72e:	84 e0       	ldi	r24, 0x04	; 4
 730:	b5 de       	rcall	.-662    	; 0x49c <setPinDir>
	setPin(LED,LOW);
 732:	60 e0       	ldi	r22, 0x00	; 0
 734:	84 e0       	ldi	r24, 0x04	; 4
 736:	93 de       	rcall	.-730    	; 0x45e <setPin>
 738:	08 95       	ret

0000073a <__vector_10>:



//ISRs
ISR(TIMER0_COMPA_vect)
{
 73a:	1f 92       	push	r1
 73c:	0f 92       	push	r0
 73e:	0f b6       	in	r0, 0x3f	; 63
 740:	0f 92       	push	r0
 742:	11 24       	eor	r1, r1
 744:	8f 93       	push	r24
	//  USICR |= (1<<USITC);
	
	//clean the interrupt flag ()
	TIFR |= (1<<OCF0A);
 746:	88 b7       	in	r24, 0x38	; 56
 748:	80 61       	ori	r24, 0x10	; 16
 74a:	88 bf       	out	0x38, r24	; 56
	
	if(usi_state!=usi_idle)
 74c:	80 91 82 00 	lds	r24, 0x0082	; 0x800082 <usi_state>
 750:	88 23       	and	r24, r24
 752:	19 f0       	breq	.+6      	; 0x75a <__vector_10+0x20>
	{
		
		USICR |= (1<<USITC);   // un tick del USI
 754:	8d b1       	in	r24, 0x0d	; 13
 756:	81 60       	ori	r24, 0x01	; 1
 758:	8d b9       	out	0x0d, r24	; 13
	}

	//set the count to 0
	TCNT0 = 0x00;
 75a:	12 be       	out	0x32, r1	; 50
}
 75c:	8f 91       	pop	r24
 75e:	0f 90       	pop	r0
 760:	0f be       	out	0x3f, r0	; 63
 762:	0f 90       	pop	r0
 764:	1f 90       	pop	r1
 766:	18 95       	reti

00000768 <main>:
	//Init ATtiny
	//char	a = 1;
	//char	b = 0;
	//uint8_t init_oled = 0;
	uint8_t dht_status = DHT_WORKING;
	app_state = READ;	
 768:	82 e0       	ldi	r24, 0x02	; 2
 76a:	80 93 84 00 	sts	0x0084, r24	; 0x800084 <app_state>
 76e:	2d e0       	ldi	r18, 0x0D	; 13
 770:	2a 95       	dec	r18
 772:	f1 f7       	brne	.-4      	; 0x770 <main+0x8>
 774:	00 00       	nop
 776:	8d e0       	ldi	r24, 0x0D	; 13
 778:	8a 95       	dec	r24
 77a:	f1 f7       	brne	.-4      	; 0x778 <main+0x10>
 77c:	00 00       	nop
 77e:	9d e0       	ldi	r25, 0x0D	; 13
 780:	9a 95       	dec	r25
 782:	f1 f7       	brne	.-4      	; 0x780 <main+0x18>
 784:	00 00       	nop
 786:	2d e0       	ldi	r18, 0x0D	; 13
 788:	2a 95       	dec	r18
 78a:	f1 f7       	brne	.-4      	; 0x788 <main+0x20>
 78c:	00 00       	nop
	TWI_DELAY();
	TWI_DELAY();
	TWI_DELAY();
	TWI_DELAY();

	attiny_init();
 78e:	c8 df       	rcall	.-112    	; 0x720 <attiny_init>
    /* Replace with your application code */
    while (1) 
    {
		
		
		switch(app_state)
 790:	80 91 84 00 	lds	r24, 0x0084	; 0x800084 <app_state>
 794:	81 30       	cpi	r24, 0x01	; 1
 796:	49 f1       	breq	.+82     	; 0x7ea <main+0x82>
 798:	18 f0       	brcs	.+6      	; 0x7a0 <main+0x38>
 79a:	82 30       	cpi	r24, 0x02	; 2
 79c:	89 f0       	breq	.+34     	; 0x7c0 <main+0x58>
 79e:	3b c0       	rjmp	.+118    	; 0x816 <main+0xae>
		{
			case IDLE:
				//in idle state, we just wait to measure again
				GLED_OFF;
 7a0:	88 b3       	in	r24, 0x18	; 24
 7a2:	8f 7e       	andi	r24, 0xEF	; 239
 7a4:	88 bb       	out	0x18, r24	; 24
	#else
		//round up by default
		__ticks_dc = (uint32_t)(ceil(fabs(__tmp)));
	#endif

	__builtin_avr_delay_cycles(__ticks_dc);
 7a6:	8f ef       	ldi	r24, 0xFF	; 255
 7a8:	9f e4       	ldi	r25, 0x4F	; 79
 7aa:	23 ec       	ldi	r18, 0xC3	; 195
 7ac:	81 50       	subi	r24, 0x01	; 1
 7ae:	90 40       	sbci	r25, 0x00	; 0
 7b0:	20 40       	sbci	r18, 0x00	; 0
 7b2:	e1 f7       	brne	.-8      	; 0x7ac <main+0x44>
 7b4:	00 c0       	rjmp	.+0      	; 0x7b6 <main+0x4e>
 7b6:	00 00       	nop
				_delay_ms(8000);
				
				app_state = READ;
 7b8:	82 e0       	ldi	r24, 0x02	; 2
 7ba:	80 93 84 00 	sts	0x0084, r24	; 0x800084 <app_state>
				break;
 7be:	e8 cf       	rjmp	.-48     	; 0x790 <main+0x28>
			case READ:
				GLED_ON;
 7c0:	88 b3       	in	r24, 0x18	; 24
 7c2:	80 61       	ori	r24, 0x10	; 16
 7c4:	88 bb       	out	0x18, r24	; 24
				TIMSK &= ~(1 << OCIE0A);
 7c6:	89 b7       	in	r24, 0x39	; 57
 7c8:	8f 7e       	andi	r24, 0xEF	; 239
 7ca:	89 bf       	out	0x39, r24	; 57
				//attiny_timer_deinit();
				
				dht_status = dht_read_2();
 7cc:	b2 dd       	rcall	.-1180   	; 0x332 <dht_read_2>
				TIMSK |= (1 << OCIE0A);
 7ce:	99 b7       	in	r25, 0x39	; 57
 7d0:	90 61       	ori	r25, 0x10	; 16
 7d2:	99 bf       	out	0x39, r25	; 57
				if (dht_status==DHT_OK_STATUS)
 7d4:	84 30       	cpi	r24, 0x04	; 4
 7d6:	21 f4       	brne	.+8      	; 0x7e0 <main+0x78>
				{
					dht_status = DHT_WORKING;
					app_state = PRINT;
 7d8:	81 e0       	ldi	r24, 0x01	; 1
 7da:	80 93 84 00 	sts	0x0084, r24	; 0x800084 <app_state>
 7de:	d8 cf       	rjmp	.-80     	; 0x790 <main+0x28>
				}
				else if(dht_status!=DHT_OK_STATUS)
 7e0:	84 30       	cpi	r24, 0x04	; 4
 7e2:	b1 f2       	breq	.-84     	; 0x790 <main+0x28>
				{
					dht_status = DHT_WORKING;
					app_state = IDLE;
 7e4:	10 92 84 00 	sts	0x0084, r1	; 0x800084 <app_state>
 7e8:	d3 cf       	rjmp	.-90     	; 0x790 <main+0x28>
				break;
			case PRINT:
				
				

				attiny_timer_init();
 7ea:	88 df       	rcall	.-240    	; 0x6fc <attiny_timer_init>
				//attiny_i2c_tx();
				//turn on display
				oled_on();
 7ec:	50 d1       	rcall	.+672    	; 0xa8e <oled_on>
				//full-on display
				oled_full_on();
 7ee:	54 d1       	rcall	.+680    	; 0xa98 <oled_full_on>
				//display sleep mode
				//attiny_i2c_send_byte(OLED_ADDR_W,0x00,0xA4);
				oled_clean(standar_mode);
 7f0:	80 e0       	ldi	r24, 0x00	; 0
 7f2:	30 d0       	rcall	.+96     	; 0x854 <oled_clean>
			
				//write text
				//oled_print_text("TEMP: 0°C",2,32);
				print_temperature(_v_dht_temp_int,_v_dht_temp_dec);
 7f4:	60 91 7d 00 	lds	r22, 0x007D	; 0x80007d <_v_dht_temp_dec>
 7f8:	80 91 7e 00 	lds	r24, 0x007E	; 0x80007e <_v_dht_temp_int>
 7fc:	9f d0       	rcall	.+318    	; 0x93c <print_temperature>
				print_humidity(_v_dht_rh_int,_v_dht_rh_dec);
 7fe:	60 91 7b 00 	lds	r22, 0x007B	; 0x80007b <_v_dht_rh_dec>
 802:	80 91 7c 00 	lds	r24, 0x007C	; 0x80007c <_v_dht_rh_int>
 806:	f0 d0       	rcall	.+480    	; 0x9e8 <print_humidity>
				//oled_print_text("HUM:  70%",5,32);
				//oled_draw_weather(sunny,2,32);
			
			
				//full-on display (using gdram)
				attiny_i2c_send_byte(OLED_ADDR_W,0x00,0xA4);
 808:	44 ea       	ldi	r20, 0xA4	; 164
 80a:	60 e0       	ldi	r22, 0x00	; 0
 80c:	88 e7       	ldi	r24, 0x78	; 120
 80e:	ce de       	rcall	.-612    	; 0x5ac <attiny_i2c_send_byte>
				
				
				//init_oled = 0;
				
				//set state to IDLE
				app_state = IDLE;
 810:	10 92 84 00 	sts	0x0084, r1	; 0x800084 <app_state>
				
				break;
 814:	bd cf       	rjmp	.-134    	; 0x790 <main+0x28>
			default:
				app_state = IDLE;
 816:	10 92 84 00 	sts	0x0084, r1	; 0x800084 <app_state>
				break;
 81a:	ba cf       	rjmp	.-140    	; 0x790 <main+0x28>

0000081c <set_page>:
			pixel_slice = pgm_read_byte(&weathericons[id][slice_index]);
			oled_write_byte(pixel_slice);	
			
		}	

}
 81c:	88 30       	cpi	r24, 0x08	; 8
 81e:	30 f4       	brcc	.+12     	; 0x82c <set_page+0x10>
 820:	48 2f       	mov	r20, r24
 822:	4f 70       	andi	r20, 0x0F	; 15
 824:	40 6b       	ori	r20, 0xB0	; 176
 826:	60 e0       	ldi	r22, 0x00	; 0
 828:	88 e7       	ldi	r24, 0x78	; 120
 82a:	c0 de       	rcall	.-640    	; 0x5ac <attiny_i2c_send_byte>
 82c:	08 95       	ret

0000082e <set_column>:
 82e:	cf 93       	push	r28
 830:	88 23       	and	r24, r24
 832:	74 f0       	brlt	.+28     	; 0x850 <set_column+0x22>
 834:	c2 e0       	ldi	r28, 0x02	; 2
 836:	c8 0f       	add	r28, r24
 838:	4c 2f       	mov	r20, r28
 83a:	4f 70       	andi	r20, 0x0F	; 15
 83c:	60 e0       	ldi	r22, 0x00	; 0
 83e:	88 e7       	ldi	r24, 0x78	; 120
 840:	b5 de       	rcall	.-662    	; 0x5ac <attiny_i2c_send_byte>
 842:	4c 2f       	mov	r20, r28
 844:	42 95       	swap	r20
 846:	4f 70       	andi	r20, 0x0F	; 15
 848:	40 61       	ori	r20, 0x10	; 16
 84a:	60 e0       	ldi	r22, 0x00	; 0
 84c:	88 e7       	ldi	r24, 0x78	; 120
 84e:	ae de       	rcall	.-676    	; 0x5ac <attiny_i2c_send_byte>
 850:	cf 91       	pop	r28
 852:	08 95       	ret

00000854 <oled_clean>:
 854:	cf 93       	push	r28
 856:	df 93       	push	r29
 858:	d0 e0       	ldi	r29, 0x00	; 0
 85a:	1c c0       	rjmp	.+56     	; 0x894 <oled_clean+0x40>
 85c:	4d 2f       	mov	r20, r29
 85e:	4f 70       	andi	r20, 0x0F	; 15
 860:	40 6b       	ori	r20, 0xB0	; 176
 862:	60 e0       	ldi	r22, 0x00	; 0
 864:	88 e7       	ldi	r24, 0x78	; 120
 866:	a2 de       	rcall	.-700    	; 0x5ac <attiny_i2c_send_byte>
 868:	42 e0       	ldi	r20, 0x02	; 2
 86a:	60 e0       	ldi	r22, 0x00	; 0
 86c:	88 e7       	ldi	r24, 0x78	; 120
 86e:	9e de       	rcall	.-708    	; 0x5ac <attiny_i2c_send_byte>
 870:	40 e1       	ldi	r20, 0x10	; 16
 872:	60 e0       	ldi	r22, 0x00	; 0
 874:	88 e7       	ldi	r24, 0x78	; 120
 876:	9a de       	rcall	.-716    	; 0x5ac <attiny_i2c_send_byte>
 878:	c0 e0       	ldi	r28, 0x00	; 0
 87a:	05 c0       	rjmp	.+10     	; 0x886 <oled_clean+0x32>
 87c:	40 e0       	ldi	r20, 0x00	; 0
 87e:	60 e4       	ldi	r22, 0x40	; 64
 880:	88 e7       	ldi	r24, 0x78	; 120
 882:	94 de       	rcall	.-728    	; 0x5ac <attiny_i2c_send_byte>
 884:	cf 5f       	subi	r28, 0xFF	; 255
 886:	cc 23       	and	r28, r28
 888:	cc f7       	brge	.-14     	; 0x87c <oled_clean+0x28>
 88a:	8d e0       	ldi	r24, 0x0D	; 13
 88c:	8a 95       	dec	r24
 88e:	f1 f7       	brne	.-4      	; 0x88c <oled_clean+0x38>
 890:	00 00       	nop
 892:	df 5f       	subi	r29, 0xFF	; 255
 894:	d8 30       	cpi	r29, 0x08	; 8
 896:	10 f3       	brcs	.-60     	; 0x85c <oled_clean+0x8>
 898:	df 91       	pop	r29
 89a:	cf 91       	pop	r28
 89c:	08 95       	ret

0000089e <oled_write_byte>:
 89e:	48 2f       	mov	r20, r24
 8a0:	60 e4       	ldi	r22, 0x40	; 64
 8a2:	88 e7       	ldi	r24, 0x78	; 120
 8a4:	83 de       	rcall	.-762    	; 0x5ac <attiny_i2c_send_byte>
 8a6:	08 95       	ret

000008a8 <oled_print_text>:
 8a8:	df 92       	push	r13
 8aa:	ef 92       	push	r14
 8ac:	ff 92       	push	r15
 8ae:	0f 93       	push	r16
 8b0:	1f 93       	push	r17
 8b2:	cf 93       	push	r28
 8b4:	df 93       	push	r29
 8b6:	7c 01       	movw	r14, r24
 8b8:	86 2f       	mov	r24, r22
 8ba:	c4 2f       	mov	r28, r20
 8bc:	f7 01       	movw	r30, r14
 8be:	01 90       	ld	r0, Z+
 8c0:	00 20       	and	r0, r0
 8c2:	e9 f7       	brne	.-6      	; 0x8be <oled_print_text+0x16>
 8c4:	31 97       	sbiw	r30, 0x01	; 1
 8c6:	de 2e       	mov	r13, r30
 8c8:	de 18       	sub	r13, r14
 8ca:	a8 df       	rcall	.-176    	; 0x81c <set_page>
 8cc:	8c 2f       	mov	r24, r28
 8ce:	af df       	rcall	.-162    	; 0x82e <set_column>
 8d0:	d0 e0       	ldi	r29, 0x00	; 0
 8d2:	2a c0       	rjmp	.+84     	; 0x928 <oled_print_text+0x80>
 8d4:	f7 01       	movw	r30, r14
 8d6:	ed 0f       	add	r30, r29
 8d8:	f1 1d       	adc	r31, r1
 8da:	00 81       	ld	r16, Z
 8dc:	00 3b       	cpi	r16, 0xB0	; 176
 8de:	59 f4       	brne	.+22     	; 0x8f6 <oled_print_text+0x4e>
 8e0:	86 e0       	ldi	r24, 0x06	; 6
 8e2:	dd df       	rcall	.-70     	; 0x89e <oled_write_byte>
 8e4:	89 e0       	ldi	r24, 0x09	; 9
 8e6:	db df       	rcall	.-74     	; 0x89e <oled_write_byte>
 8e8:	89 e0       	ldi	r24, 0x09	; 9
 8ea:	d9 df       	rcall	.-78     	; 0x89e <oled_write_byte>
 8ec:	86 e0       	ldi	r24, 0x06	; 6
 8ee:	d7 df       	rcall	.-82     	; 0x89e <oled_write_byte>
 8f0:	80 e0       	ldi	r24, 0x00	; 0
 8f2:	d5 df       	rcall	.-86     	; 0x89e <oled_write_byte>
 8f4:	18 c0       	rjmp	.+48     	; 0x926 <oled_print_text+0x7e>
 8f6:	10 e0       	ldi	r17, 0x00	; 0
 8f8:	00 52       	subi	r16, 0x20	; 32
 8fa:	11 09       	sbc	r17, r1
 8fc:	c8 01       	movw	r24, r16
 8fe:	88 0f       	add	r24, r24
 900:	99 1f       	adc	r25, r25
 902:	88 0f       	add	r24, r24
 904:	99 1f       	adc	r25, r25
 906:	08 0f       	add	r16, r24
 908:	19 1f       	adc	r17, r25
 90a:	c0 e0       	ldi	r28, 0x00	; 0
 90c:	08 c0       	rjmp	.+16     	; 0x91e <oled_print_text+0x76>
 90e:	f8 01       	movw	r30, r16
 910:	ec 0f       	add	r30, r28
 912:	f1 1d       	adc	r31, r1
 914:	e2 5e       	subi	r30, 0xE2	; 226
 916:	ff 4f       	sbci	r31, 0xFF	; 255
 918:	84 91       	lpm	r24, Z
 91a:	c1 df       	rcall	.-126    	; 0x89e <oled_write_byte>
 91c:	cf 5f       	subi	r28, 0xFF	; 255
 91e:	c5 30       	cpi	r28, 0x05	; 5
 920:	b0 f3       	brcs	.-20     	; 0x90e <oled_print_text+0x66>
 922:	80 e0       	ldi	r24, 0x00	; 0
 924:	bc df       	rcall	.-136    	; 0x89e <oled_write_byte>
 926:	df 5f       	subi	r29, 0xFF	; 255
 928:	dd 15       	cp	r29, r13
 92a:	a0 f2       	brcs	.-88     	; 0x8d4 <oled_print_text+0x2c>
 92c:	df 91       	pop	r29
 92e:	cf 91       	pop	r28
 930:	1f 91       	pop	r17
 932:	0f 91       	pop	r16
 934:	ff 90       	pop	r15
 936:	ef 90       	pop	r14
 938:	df 90       	pop	r13
 93a:	08 95       	ret

0000093c <print_temperature>:



void print_temperature(uint8_t temp_in, uint8_t temp_decc) {
 93c:	ff 92       	push	r15
 93e:	0f 93       	push	r16
 940:	1f 93       	push	r17
 942:	cf 93       	push	r28
 944:	df 93       	push	r29
 946:	cd b7       	in	r28, 0x3d	; 61
 948:	de b7       	in	r29, 0x3e	; 62
 94a:	68 97       	sbiw	r28, 0x18	; 24
 94c:	0f b6       	in	r0, 0x3f	; 63
 94e:	f8 94       	cli
 950:	de bf       	out	0x3e, r29	; 62
 952:	0f be       	out	0x3f, r0	; 63
 954:	cd bf       	out	0x3d, r28	; 61
 956:	f6 2e       	mov	r15, r22
	char buffer_dec[4];   // dec temperature
	
	//temperatura
	
	//Copy texto to the buffer
	strcpy(buffer_oled, "TEMP: ");
 958:	97 e0       	ldi	r25, 0x07	; 7
 95a:	e1 e6       	ldi	r30, 0x61	; 97
 95c:	f0 e0       	ldi	r31, 0x00	; 0
 95e:	8e 01       	movw	r16, r28
 960:	0f 5f       	subi	r16, 0xFF	; 255
 962:	1f 4f       	sbci	r17, 0xFF	; 255
 964:	d8 01       	movw	r26, r16
 966:	01 90       	ld	r0, Z+
 968:	0d 92       	st	X+, r0
 96a:	9a 95       	dec	r25
 96c:	e1 f7       	brne	.-8      	; 0x966 <print_temperature+0x2a>
    } else if (__radix < 2 || __radix > 36) {
	*__s = 0;
	return __s;
    } else {
	extern char *__itoa_ncheck (int, char *, unsigned char);
	return __itoa_ncheck (__val, __s, __radix);
 96e:	4a e0       	ldi	r20, 0x0A	; 10
 970:	be 01       	movw	r22, r28
 972:	6f 5e       	subi	r22, 0xEF	; 239
 974:	7f 4f       	sbci	r23, 0xFF	; 255
 976:	90 e0       	ldi	r25, 0x00	; 0
 978:	9f d0       	rcall	.+318    	; 0xab8 <__itoa_ncheck>
 97a:	4a e0       	ldi	r20, 0x0A	; 10
 97c:	be 01       	movw	r22, r28
 97e:	6b 5e       	subi	r22, 0xEB	; 235
 980:	7f 4f       	sbci	r23, 0xFF	; 255
 982:	8f 2d       	mov	r24, r15
 984:	90 e0       	ldi	r25, 0x00	; 0
 986:	98 d0       	rcall	.+304    	; 0xab8 <__itoa_ncheck>
	
	//Convert _v_dht_temp_dec to string base 10
	itoa(temp_decc, buffer_dec, 10);
	
	//concat integer part to string
	strcat(buffer_oled, buffer_num);
 988:	be 01       	movw	r22, r28
 98a:	6f 5e       	subi	r22, 0xEF	; 239
 98c:	7f 4f       	sbci	r23, 0xFF	; 255
 98e:	c8 01       	movw	r24, r16
 990:	88 d0       	rcall	.+272    	; 0xaa2 <strcat>
	
	//concat decimal part to string
	strcat(buffer_oled, ".");
 992:	f8 01       	movw	r30, r16
 994:	01 90       	ld	r0, Z+
 996:	00 20       	and	r0, r0
 998:	e9 f7       	brne	.-6      	; 0x994 <print_temperature+0x58>
 99a:	31 97       	sbiw	r30, 0x01	; 1
 99c:	8e e2       	ldi	r24, 0x2E	; 46
 99e:	90 e0       	ldi	r25, 0x00	; 0
 9a0:	91 83       	std	Z+1, r25	; 0x01
 9a2:	80 83       	st	Z, r24
	strcat(buffer_oled, buffer_dec);
 9a4:	be 01       	movw	r22, r28
 9a6:	6b 5e       	subi	r22, 0xEB	; 235
 9a8:	7f 4f       	sbci	r23, 0xFF	; 255
 9aa:	c8 01       	movw	r24, r16
 9ac:	7a d0       	rcall	.+244    	; 0xaa2 <strcat>
	
	//finish the string
	strcat(buffer_oled, " °C");
 9ae:	f8 01       	movw	r30, r16
 9b0:	01 90       	ld	r0, Z+
 9b2:	00 20       	and	r0, r0
 9b4:	e9 f7       	brne	.-6      	; 0x9b0 <print_temperature+0x74>
 9b6:	31 97       	sbiw	r30, 0x01	; 1
 9b8:	80 e2       	ldi	r24, 0x20	; 32
 9ba:	90 eb       	ldi	r25, 0xB0	; 176
 9bc:	91 83       	std	Z+1, r25	; 0x01
 9be:	80 83       	st	Z, r24
 9c0:	83 e4       	ldi	r24, 0x43	; 67
 9c2:	90 e0       	ldi	r25, 0x00	; 0
 9c4:	93 83       	std	Z+3, r25	; 0x03
 9c6:	82 83       	std	Z+2, r24	; 0x02
	
	//print
	oled_print_text(buffer_oled, 2, 32);
 9c8:	40 e2       	ldi	r20, 0x20	; 32
 9ca:	62 e0       	ldi	r22, 0x02	; 2
 9cc:	c8 01       	movw	r24, r16
 9ce:	6c df       	rcall	.-296    	; 0x8a8 <oled_print_text>
}
 9d0:	68 96       	adiw	r28, 0x18	; 24
 9d2:	0f b6       	in	r0, 0x3f	; 63
 9d4:	f8 94       	cli
 9d6:	de bf       	out	0x3e, r29	; 62
 9d8:	0f be       	out	0x3f, r0	; 63
 9da:	cd bf       	out	0x3d, r28	; 61
 9dc:	df 91       	pop	r29
 9de:	cf 91       	pop	r28
 9e0:	1f 91       	pop	r17
 9e2:	0f 91       	pop	r16
 9e4:	ff 90       	pop	r15
 9e6:	08 95       	ret

000009e8 <print_humidity>:


void print_humidity(uint8_t rh_int, uint8_t rh_dec) {
 9e8:	ff 92       	push	r15
 9ea:	0f 93       	push	r16
 9ec:	1f 93       	push	r17
 9ee:	cf 93       	push	r28
 9f0:	df 93       	push	r29
 9f2:	cd b7       	in	r28, 0x3d	; 61
 9f4:	de b7       	in	r29, 0x3e	; 62
 9f6:	68 97       	sbiw	r28, 0x18	; 24
 9f8:	0f b6       	in	r0, 0x3f	; 63
 9fa:	f8 94       	cli
 9fc:	de bf       	out	0x3e, r29	; 62
 9fe:	0f be       	out	0x3f, r0	; 63
 a00:	cd bf       	out	0x3d, r28	; 61
 a02:	f6 2e       	mov	r15, r22
	char buffer_dec[4];   // dec temperature
	
	//temperatura
	
	//Copy texto to the buffer
	strcpy(buffer_oled, "HUM:  ");
 a04:	97 e0       	ldi	r25, 0x07	; 7
 a06:	e8 e6       	ldi	r30, 0x68	; 104
 a08:	f0 e0       	ldi	r31, 0x00	; 0
 a0a:	8e 01       	movw	r16, r28
 a0c:	0f 5f       	subi	r16, 0xFF	; 255
 a0e:	1f 4f       	sbci	r17, 0xFF	; 255
 a10:	d8 01       	movw	r26, r16
 a12:	01 90       	ld	r0, Z+
 a14:	0d 92       	st	X+, r0
 a16:	9a 95       	dec	r25
 a18:	e1 f7       	brne	.-8      	; 0xa12 <print_humidity+0x2a>
 a1a:	4a e0       	ldi	r20, 0x0A	; 10
 a1c:	be 01       	movw	r22, r28
 a1e:	6f 5e       	subi	r22, 0xEF	; 239
 a20:	7f 4f       	sbci	r23, 0xFF	; 255
 a22:	90 e0       	ldi	r25, 0x00	; 0
 a24:	49 d0       	rcall	.+146    	; 0xab8 <__itoa_ncheck>
 a26:	4a e0       	ldi	r20, 0x0A	; 10
 a28:	be 01       	movw	r22, r28
 a2a:	6b 5e       	subi	r22, 0xEB	; 235
 a2c:	7f 4f       	sbci	r23, 0xFF	; 255
 a2e:	8f 2d       	mov	r24, r15
 a30:	90 e0       	ldi	r25, 0x00	; 0
 a32:	42 d0       	rcall	.+132    	; 0xab8 <__itoa_ncheck>
	
	//Convert _v_dht_temp_dec to string base 10
	itoa(rh_dec, buffer_dec, 10);
	
	//concat integer part to string
	strcat(buffer_oled, buffer_num);
 a34:	be 01       	movw	r22, r28
 a36:	6f 5e       	subi	r22, 0xEF	; 239
 a38:	7f 4f       	sbci	r23, 0xFF	; 255
 a3a:	c8 01       	movw	r24, r16
 a3c:	32 d0       	rcall	.+100    	; 0xaa2 <strcat>
	
	//concat decimal part to string
	strcat(buffer_oled, ".");
 a3e:	f8 01       	movw	r30, r16
 a40:	01 90       	ld	r0, Z+
 a42:	00 20       	and	r0, r0
 a44:	e9 f7       	brne	.-6      	; 0xa40 <print_humidity+0x58>
 a46:	31 97       	sbiw	r30, 0x01	; 1
 a48:	8e e2       	ldi	r24, 0x2E	; 46
 a4a:	90 e0       	ldi	r25, 0x00	; 0
 a4c:	91 83       	std	Z+1, r25	; 0x01
 a4e:	80 83       	st	Z, r24
	strcat(buffer_oled, buffer_dec);
 a50:	be 01       	movw	r22, r28
 a52:	6b 5e       	subi	r22, 0xEB	; 235
 a54:	7f 4f       	sbci	r23, 0xFF	; 255
 a56:	c8 01       	movw	r24, r16
 a58:	24 d0       	rcall	.+72     	; 0xaa2 <strcat>
	
	//finish the string
	strcat(buffer_oled, " %");
 a5a:	f8 01       	movw	r30, r16
 a5c:	01 90       	ld	r0, Z+
 a5e:	00 20       	and	r0, r0
 a60:	e9 f7       	brne	.-6      	; 0xa5c <print_humidity+0x74>
 a62:	31 97       	sbiw	r30, 0x01	; 1
 a64:	80 e2       	ldi	r24, 0x20	; 32
 a66:	95 e2       	ldi	r25, 0x25	; 37
 a68:	91 83       	std	Z+1, r25	; 0x01
 a6a:	80 83       	st	Z, r24
 a6c:	12 82       	std	Z+2, r1	; 0x02
	
	//print
	oled_print_text(buffer_oled, 5, 32);
 a6e:	40 e2       	ldi	r20, 0x20	; 32
 a70:	65 e0       	ldi	r22, 0x05	; 5
 a72:	c8 01       	movw	r24, r16
 a74:	19 df       	rcall	.-462    	; 0x8a8 <oled_print_text>
}
 a76:	68 96       	adiw	r28, 0x18	; 24
 a78:	0f b6       	in	r0, 0x3f	; 63
 a7a:	f8 94       	cli
 a7c:	de bf       	out	0x3e, r29	; 62
 a7e:	0f be       	out	0x3f, r0	; 63
 a80:	cd bf       	out	0x3d, r28	; 61
 a82:	df 91       	pop	r29
 a84:	cf 91       	pop	r28
 a86:	1f 91       	pop	r17
 a88:	0f 91       	pop	r16
 a8a:	ff 90       	pop	r15
 a8c:	08 95       	ret

00000a8e <oled_on>:
	@param: 
	@return:
*/
void oled_on()
{
	attiny_i2c_send_byte(OLED_ADDR_W,0x00,0xAF);
 a8e:	4f ea       	ldi	r20, 0xAF	; 175
 a90:	60 e0       	ldi	r22, 0x00	; 0
 a92:	88 e7       	ldi	r24, 0x78	; 120
 a94:	8b dd       	rcall	.-1258   	; 0x5ac <attiny_i2c_send_byte>
 a96:	08 95       	ret

00000a98 <oled_full_on>:
	@param: 
	@return:
*/
void oled_full_on()
{
	attiny_i2c_send_byte(OLED_ADDR_W,0x00,0xA5);
 a98:	45 ea       	ldi	r20, 0xA5	; 165
 a9a:	60 e0       	ldi	r22, 0x00	; 0
 a9c:	88 e7       	ldi	r24, 0x78	; 120
 a9e:	86 dd       	rcall	.-1268   	; 0x5ac <attiny_i2c_send_byte>
 aa0:	08 95       	ret

00000aa2 <strcat>:
 aa2:	fb 01       	movw	r30, r22
 aa4:	dc 01       	movw	r26, r24
 aa6:	0d 90       	ld	r0, X+
 aa8:	00 20       	and	r0, r0
 aaa:	e9 f7       	brne	.-6      	; 0xaa6 <strcat+0x4>
 aac:	11 97       	sbiw	r26, 0x01	; 1
 aae:	01 90       	ld	r0, Z+
 ab0:	0d 92       	st	X+, r0
 ab2:	00 20       	and	r0, r0
 ab4:	e1 f7       	brne	.-8      	; 0xaae <strcat+0xc>
 ab6:	08 95       	ret

00000ab8 <__itoa_ncheck>:
 ab8:	bb 27       	eor	r27, r27
 aba:	4a 30       	cpi	r20, 0x0A	; 10
 abc:	31 f4       	brne	.+12     	; 0xaca <__itoa_ncheck+0x12>
 abe:	99 23       	and	r25, r25
 ac0:	22 f4       	brpl	.+8      	; 0xaca <__itoa_ncheck+0x12>
 ac2:	bd e2       	ldi	r27, 0x2D	; 45
 ac4:	90 95       	com	r25
 ac6:	81 95       	neg	r24
 ac8:	9f 4f       	sbci	r25, 0xFF	; 255
 aca:	01 c0       	rjmp	.+2      	; 0xace <__utoa_common>

00000acc <__utoa_ncheck>:
 acc:	bb 27       	eor	r27, r27

00000ace <__utoa_common>:
 ace:	fb 01       	movw	r30, r22
 ad0:	55 27       	eor	r21, r21
 ad2:	aa 27       	eor	r26, r26
 ad4:	88 0f       	add	r24, r24
 ad6:	99 1f       	adc	r25, r25
 ad8:	aa 1f       	adc	r26, r26
 ada:	a4 17       	cp	r26, r20
 adc:	10 f0       	brcs	.+4      	; 0xae2 <__utoa_common+0x14>
 ade:	a4 1b       	sub	r26, r20
 ae0:	83 95       	inc	r24
 ae2:	50 51       	subi	r21, 0x10	; 16
 ae4:	b9 f7       	brne	.-18     	; 0xad4 <__utoa_common+0x6>
 ae6:	a0 5d       	subi	r26, 0xD0	; 208
 ae8:	aa 33       	cpi	r26, 0x3A	; 58
 aea:	08 f0       	brcs	.+2      	; 0xaee <__utoa_common+0x20>
 aec:	a9 5d       	subi	r26, 0xD9	; 217
 aee:	a1 93       	st	Z+, r26
 af0:	00 97       	sbiw	r24, 0x00	; 0
 af2:	79 f7       	brne	.-34     	; 0xad2 <__utoa_common+0x4>
 af4:	b1 11       	cpse	r27, r1
 af6:	b1 93       	st	Z+, r27
 af8:	11 92       	st	Z+, r1
 afa:	cb 01       	movw	r24, r22
 afc:	00 c0       	rjmp	.+0      	; 0xafe <strrev>

00000afe <strrev>:
 afe:	dc 01       	movw	r26, r24
 b00:	fc 01       	movw	r30, r24
 b02:	67 2f       	mov	r22, r23
 b04:	71 91       	ld	r23, Z+
 b06:	77 23       	and	r23, r23
 b08:	e1 f7       	brne	.-8      	; 0xb02 <strrev+0x4>
 b0a:	32 97       	sbiw	r30, 0x02	; 2
 b0c:	04 c0       	rjmp	.+8      	; 0xb16 <strrev+0x18>
 b0e:	7c 91       	ld	r23, X
 b10:	6d 93       	st	X+, r22
 b12:	70 83       	st	Z, r23
 b14:	62 91       	ld	r22, -Z
 b16:	ae 17       	cp	r26, r30
 b18:	bf 07       	cpc	r27, r31
 b1a:	c8 f3       	brcs	.-14     	; 0xb0e <strrev+0x10>
 b1c:	08 95       	ret

00000b1e <_exit>:
 b1e:	f8 94       	cli

00000b20 <__stop_program>:
 b20:	ff cf       	rjmp	.-2      	; 0xb20 <__stop_program>
